
jpeg_encoder.elf:     file format elf32-littlenios2
jpeg_encoder.elf
architecture: nios2, flags 0x00000112:
EXEC_P, HAS_SYMS, D_PAGED
start address 0x000001b8

Program Header:
    LOAD off    0x00001000 vaddr 0x00000000 paddr 0x00000000 align 2**12
         filesz 0x00000020 memsz 0x00000020 flags r-x
    LOAD off    0x00001020 vaddr 0x00000020 paddr 0x00000020 align 2**12
         filesz 0x00041654 memsz 0x00041654 flags r-x
    LOAD off    0x00042674 vaddr 0x00041674 paddr 0x0004317c align 2**12
         filesz 0x00001b08 memsz 0x00001b08 flags rw-
    LOAD off    0x00044c84 vaddr 0x00044c84 paddr 0x00044c84 align 2**12
         filesz 0x00000000 memsz 0x04000428 flags rw-

Sections:
Idx Name          Size      VMA       LMA       File off  Algn
  0 .entry        00000020  00000000  00000000  00001000  2**5
                  CONTENTS, ALLOC, LOAD, READONLY, CODE
  1 .exceptions   00000198  00000020  00000020  00001020  2**2
                  CONTENTS, ALLOC, LOAD, READONLY, CODE
  2 .text         0003ec08  000001b8  000001b8  000011b8  2**2
                  CONTENTS, ALLOC, LOAD, READONLY, CODE
  3 .rodata       000028b4  0003edc0  0003edc0  0003fdc0  2**2
                  CONTENTS, ALLOC, LOAD, READONLY, DATA
  4 .rwdata       00001b08  00041674  0004317c  00042674  2**2
                  CONTENTS, ALLOC, LOAD, DATA, SMALL_DATA
  5 .bss          040006d5  00044c84  00044c84  00044c84  2**2
                  ALLOC, SMALL_DATA
  6 .comment      00000023  00000000  00000000  0004417c  2**0
                  CONTENTS, READONLY
  7 .debug_aranges 00001960  00000000  00000000  000441a0  2**3
                  CONTENTS, READONLY, DEBUGGING
  8 .debug_info   0006efb7  00000000  00000000  00045b00  2**0
                  CONTENTS, READONLY, DEBUGGING
  9 .debug_abbrev 000130f1  00000000  00000000  000b4ab7  2**0
                  CONTENTS, READONLY, DEBUGGING
 10 .debug_line   0001a8c2  00000000  00000000  000c7ba8  2**0
                  CONTENTS, READONLY, DEBUGGING
 11 .debug_frame  000047d8  00000000  00000000  000e246c  2**2
                  CONTENTS, READONLY, DEBUGGING
 12 .debug_str    0000838f  00000000  00000000  000e6c44  2**0
                  CONTENTS, READONLY, DEBUGGING
 13 .debug_loc    0001d97f  00000000  00000000  000eefd3  2**0
                  CONTENTS, READONLY, DEBUGGING
 14 .debug_alt_sim_info 00000040  00000000  00000000  0010c954  2**2
                  CONTENTS, READONLY, DEBUGGING
 15 .debug_ranges 00000ea0  00000000  00000000  0010c998  2**3
                  CONTENTS, READONLY, DEBUGGING
 16 .thread_model 00000003  00000000  00000000  00114286  2**0
                  CONTENTS, READONLY
 17 .cpu          00000003  00000000  00000000  00114289  2**0
                  CONTENTS, READONLY
 18 .qsys         00000001  00000000  00000000  0011428c  2**0
                  CONTENTS, READONLY
 19 .simulation_enabled 00000001  00000000  00000000  0011428d  2**0
                  CONTENTS, READONLY
 20 .sysid_hash   00000004  00000000  00000000  0011428e  2**0
                  CONTENTS, READONLY
 21 .sysid_base   00000004  00000000  00000000  00114292  2**0
                  CONTENTS, READONLY
 22 .sysid_time   00000004  00000000  00000000  00114296  2**0
                  CONTENTS, READONLY
 23 .stderr_dev   00000009  00000000  00000000  0011429a  2**0
                  CONTENTS, READONLY
 24 .stdin_dev    00000009  00000000  00000000  001142a3  2**0
                  CONTENTS, READONLY
 25 .stdout_dev   00000009  00000000  00000000  001142ac  2**0
                  CONTENTS, READONLY
 26 .sopc_system_name 00000003  00000000  00000000  001142b5  2**0
                  CONTENTS, READONLY
 27 .quartus_project_dir 0000002e  00000000  00000000  001142b8  2**0
                  CONTENTS, READONLY
 28 .sopcinfo     00050240  00000000  00000000  001142e6  2**0
                  CONTENTS, READONLY
SYMBOL TABLE:
00000000 l    d  .entry	00000000 .entry
00000020 l    d  .exceptions	00000000 .exceptions
000001b8 l    d  .text	00000000 .text
0003edc0 l    d  .rodata	00000000 .rodata
00041674 l    d  .rwdata	00000000 .rwdata
00044c84 l    d  .bss	00000000 .bss
00000000 l    d  .comment	00000000 .comment
00000000 l    d  .debug_aranges	00000000 .debug_aranges
00000000 l    d  .debug_info	00000000 .debug_info
00000000 l    d  .debug_abbrev	00000000 .debug_abbrev
00000000 l    d  .debug_line	00000000 .debug_line
00000000 l    d  .debug_frame	00000000 .debug_frame
00000000 l    d  .debug_str	00000000 .debug_str
00000000 l    d  .debug_loc	00000000 .debug_loc
00000000 l    d  .debug_alt_sim_info	00000000 .debug_alt_sim_info
00000000 l    d  .debug_ranges	00000000 .debug_ranges
00000000 l    df *ABS*	00000000 ../jpeg_encoder_bsp//obj/HAL/src/crt0.o
000001f0 l       .text	00000000 alt_after_alt_main
00000000 l    df *ABS*	00000000 alt_exception_entry.o
00000094 l       .exceptions	00000000 alt_exception_unknown
00000000 l    df *ABS*	00000000 alt_irq_handler.c
00000000 l    df *ABS*	00000000 bmp_extract.c
00000000 l    df *ABS*	00000000 jpeg_encoding.c
00000000 l    df *ABS*	00000000 cdjpeg.c
00000000 l    df *ABS*	00000000 jaricom.c
00000000 l    df *ABS*	00000000 jcapimin.c
00000000 l    df *ABS*	00000000 jcapistd.c
00000000 l    df *ABS*	00000000 jcarith.c
00001670 l     F .text	000000b0 emit_byte
00001720 l     F .text	00000334 finish_pass
00001a54 l     F .text	00000300 arith_encode
00001d54 l     F .text	0000019c emit_restart
00001ef0 l     F .text	00000474 encode_mcu_DC_first
00002364 l     F .text	000004d4 encode_mcu_AC_first
00002838 l     F .text	00000134 encode_mcu_DC_refine
0000296c l     F .text	00000494 encode_mcu_AC_refine
00002e00 l     F .text	000007e8 encode_mcu
000035e8 l     F .text	000003a8 start_pass
00000000 l    df *ABS*	00000000 jccoefct.c
00003a68 l     F .text	000000a0 start_iMCU_row
00003b08 l     F .text	00000154 start_pass_coef
00003c5c l     F .text	00000434 compress_data
00004090 l     F .text	00000420 compress_first_pass
000044b0 l     F .text	00000308 compress_output
00000000 l    df *ABS*	00000000 jccolor.c
00004988 l     F .text	000001d4 rgb_ycc_start
00004b5c l     F .text	00000270 rgb_ycc_convert
00004dcc l     F .text	00000168 rgb_gray_convert
00004f34 l     F .text	000002bc cmyk_ycck_convert
000051f0 l     F .text	000000d8 grayscale_convert
000052c8 l     F .text	0000010c null_convert
000053d4 l     F .text	00000020 null_method
00000000 l    df *ABS*	00000000 jcdctmgr.c
00005978 l     F .text	000001cc forward_DCT
00005b44 l     F .text	000001a8 forward_DCT_float
00005cec l     F .text	000006c8 start_pass_fdctmgr
0003f05c l     O .rodata	00000080 aanscales.4176
0003f0dc l     O .rodata	00000040 aanscalefactor.4184
00000000 l    df *ABS*	00000000 jchuff.c
00006470 l     F .text	00000438 jpeg_make_c_derived_tbl
000068a8 l     F .text	00000084 dump_buffer_s
0000692c l     F .text	000000ac dump_buffer_e
000069d8 l     F .text	000001a0 emit_bits_s
00006b78 l     F .text	00000194 emit_bits_e
00006d0c l     F .text	0000005c flush_bits_s
00006d68 l     F .text	00000048 flush_bits_e
00006db0 l     F .text	000000e4 emit_dc_symbol
00006e94 l     F .text	000000e4 emit_ac_symbol
00006f78 l     F .text	00000088 emit_buffered_bits
00007000 l     F .text	00000108 emit_eobrun
00007108 l     F .text	00000138 emit_restart_s
00007240 l     F .text	00000140 emit_restart_e
00007380 l     F .text	00000298 encode_mcu_DC_first
00007618 l     F .text	000002e4 encode_mcu_AC_first
000078fc l     F .text	0000019c encode_mcu_DC_refine
00007a98 l     F .text	000003c0 encode_mcu_AC_refine
00007e58 l     F .text	00000334 encode_one_block
0000818c l     F .text	000002d8 encode_mcu_huff
00008464 l     F .text	00000190 finish_pass_huff
000085f4 l     F .text	000001f0 htest_one_block
000087e4 l     F .text	000001e4 encode_mcu_gather
000089c8 l     F .text	000006c4 jpeg_gen_optimal_table
0000908c l     F .text	00000224 finish_pass_gather
000092b0 l     F .text	00000458 start_pass_huff
00000000 l    df *ABS*	00000000 jcinit.c
00000000 l    df *ABS*	00000000 jcmainct.c
00009950 l     F .text	000000b8 start_pass_main
00009a08 l     F .text	00000178 process_data_simple_main
00000000 l    df *ABS*	00000000 jcmarker.c
00009cfc l     F .text	000000b0 emit_byte
00009dac l     F .text	00000048 emit_marker
00009df4 l     F .text	00000058 emit_2bytes
00009e4c l     F .text	000001f8 emit_dqt
0000a044 l     F .text	000001e0 emit_dht
0000a224 l     F .text	00000290 emit_dac
0000a4b4 l     F .text	00000054 emit_dri
0000a508 l     F .text	00000188 emit_sof
0000a690 l     F .text	00000170 emit_sos
0000a800 l     F .text	00000090 emit_pseudo_sos
0000a890 l     F .text	0000010c emit_jfif_app0
0000a99c l     F .text	000000ec emit_adobe_app14
0000aa88 l     F .text	00000084 write_marker_header
0000ab0c l     F .text	00000038 write_marker_byte
0000ab44 l     F .text	00000078 write_file_header
0000abbc l     F .text	00000220 write_frame_header
0000addc l     F .text	0000011c write_scan_header
0000aef8 l     F .text	00000034 write_file_trailer
0000af2c l     F .text	0000011c write_tables_only
00000000 l    df *ABS*	00000000 jcmaster.c
0000b16c l     F .text	00000098 jpeg_calc_trans_dimensions
0000b204 l     F .text	00000738 initial_setup
0000b93c l     F .text	0000077c validate_script
0000c0b8 l     F .text	0000017c reduce_script
0000c234 l     F .text	00000248 select_scan_parameters
0000c47c l     F .text	0000040c per_scan_setup
0000c888 l     F .text	000002f4 prepare_for_pass
0000cb7c l     F .text	0000005c pass_startup
0000cbd8 l     F .text	000000f8 finish_pass_master
00000000 l    df *ABS*	00000000 jcomapi.c
00000000 l    df *ABS*	00000000 jcparam.c
0003f11c l     O .rodata	00000100 std_luminance_quant_tbl
0003f21c l     O .rodata	00000100 std_chrominance_quant_tbl
0000d3bc l     F .text	00000114 add_huff_table
0000d4d0 l     F .text	000000b8 std_huff_tables
0003f31c l     O .rodata	00000011 bits_dc_luminance.3790
0003f32d l     O .rodata	0000000c val_dc_luminance.3791
0003f339 l     O .rodata	00000011 bits_ac_luminance.3794
0003f34a l     O .rodata	000000a2 val_ac_luminance.3795
0003f3ec l     O .rodata	00000011 bits_dc_chrominance.3792
0003f3fd l     O .rodata	0000000c val_dc_chrominance.3793
0003f409 l     O .rodata	00000011 bits_ac_chrominance.3796
0003f41a l     O .rodata	000000a2 val_ac_chrominance.3797
0000df88 l     F .text	00000084 fill_a_scan
0000e00c l     F .text	000000a4 fill_scans
0000e0b0 l     F .text	000000f8 fill_dc_scans
00000000 l    df *ABS*	00000000 jcprepct.c
0000e550 l     F .text	0000009c start_pass_prep
0000e5ec l     F .text	0000007c expand_bottom_edge
0000e668 l     F .text	00000360 pre_process_data
0000e9c8 l     F .text	00000380 pre_process_context
0000ed48 l     F .text	00000264 create_context_buffer
00000000 l    df *ABS*	00000000 jcsample.c
0000f164 l     F .text	00000020 start_pass_downsample
0000f184 l     F .text	000000b8 expand_right_edge
0000f23c l     F .text	00000130 sep_downsample
0000f36c l     F .text	00000258 int_downsample
0000f5c4 l     F .text	000000b0 fullsize_downsample
0000f674 l     F .text	0000013c h2v1_downsample
0000f7b0 l     F .text	00000194 h2v2_downsample
0000f944 l     F .text	00000598 h2v2_smooth_downsample
0000fedc l     F .text	00000358 fullsize_smooth_downsample
00000000 l    df *ABS*	00000000 jctrans.c
00010b88 l     F .text	00000098 transencode_master_selection
00011158 l     F .text	000000fc transencode_coef_controller
00010c20 l     F .text	000000a0 start_iMCU_row
00010cc0 l     F .text	00000078 start_pass_coef
00010d38 l     F .text	00000420 compress_output
00000000 l    df *ABS*	00000000 jdatadst.c
00011254 l     F .text	00000074 init_destination
000112c8 l     F .text	00000020 init_mem_destination
000112e8 l     F .text	000000a4 empty_output_buffer
0001138c l     F .text	00000118 empty_mem_output_buffer
000114a4 l     F .text	000000ec term_destination
00011590 l     F .text	00000060 term_mem_destination
00000000 l    df *ABS*	00000000 jerror.c
0001184c l     F .text	00000038 error_exit
00011884 l     F .text	00000064 output_message
000118e8 l     F .text	000000a4 emit_message
0001198c l     F .text	00000204 format_message
00011b90 l     F .text	00000038 reset_error_mgr
00000000 l    df *ABS*	00000000 jfdctflt.c
00000000 l    df *ABS*	00000000 jfdctfst.c
00000000 l    df *ABS*	00000000 jfdctint.c
00000000 l    df *ABS*	00000000 jidctflt.c
00000000 l    df *ABS*	00000000 jidctfst.c
00000000 l    df *ABS*	00000000 jidctint.c
00000000 l    df *ABS*	00000000 jmemansi.c
00025028 l     F .text	000000c0 read_backing_store
000250e8 l     F .text	000000c0 write_backing_store
000251a8 l     F .text	0000003c close_backing_store
00000000 l    df *ABS*	00000000 jmemmgr.c
000252e8 l     F .text	00000060 out_of_memory
000430e0 l     O .rwdata	00000008 first_pool_slop
000430e8 l     O .rwdata	00000008 extra_pool_slop
00025348 l     F .text	000002d8 alloc_small
00025620 l     F .text	00000178 alloc_large
00025798 l     F .text	00000178 alloc_sarray
00025910 l     F .text	00000188 alloc_barray
00025a98 l     F .text	000000f8 request_virt_sarray
00025b90 l     F .text	000000f8 request_virt_barray
00025c88 l     F .text	00000444 realize_virt_arrays
000260cc l     F .text	000001dc do_sarray_io
000262a8 l     F .text	000001e0 do_barray_io
00026488 l     F .text	000002e8 access_virt_sarray
00026770 l     F .text	000002ec access_virt_barray
00026a5c l     F .text	0000029c free_pool
00026cf8 l     F .text	0000007c self_destruct
00000000 l    df *ABS*	00000000 jquant1.c
000409e4 l     O .rodata	00000100 base_dither_matrix
00027030 l     F .text	00000240 select_ncolors
00040ae4 l     O .rodata	0000000c RGB_order.3775
00027270 l     F .text	00000064 output_value
000272d4 l     F .text	00000060 largest_input_value
00027334 l     F .text	00000284 create_colormap
000275b8 l     F .text	00000278 create_colorindex
00027830 l     F .text	0000013c make_odither_array
0002796c l     F .text	0000011c create_odither_tables
00027a88 l     F .text	00000144 color_quantize
00027bcc l     F .text	00000164 color_quantize3
00027d30 l     F .text	000001f4 quantize_ord_dither
00027f24 l     F .text	0000023c quantize3_ord_dither
00028160 l     F .text	0000034c quantize_fs_dither
000284ac l     F .text	000000a8 alloc_fs_workspace
00028554 l     F .text	000001e0 start_pass_1_quant
00028734 l     F .text	00000020 finish_pass_1_quant
00028754 l     F .text	0000004c new_color_map_1_quant
00000000 l    df *ABS*	00000000 jquant2.c
000288e4 l     F .text	0000013c prescan_quantize
00028a20 l     F .text	0000007c find_biggest_color_pop
00028a9c l     F .text	00000074 find_biggest_volume
00028b10 l     F .text	00000758 update_box
00029268 l     F .text	00000240 median_cut
000294a8 l     F .text	00000298 compute_color
00029740 l     F .text	00000140 select_colors
00029880 l     F .text	00000568 find_nearby_colors
00029de8 l     F .text	000002b4 find_best_colors
0002a09c l     F .text	000001e4 fill_inverse_cmap
0002a280 l     F .text	00000190 pass2_no_dither
0002a410 l     F .text	00000528 pass2_fs_dither
0002a938 l     F .text	000001b0 init_error_limit
0002aae8 l     F .text	00000064 finish_pass1
0002ab4c l     F .text	00000020 finish_pass2
0002ab6c l     F .text	0000024c start_pass_2_quant
0002adb8 l     F .text	00000038 new_color_map_2_quant
00000000 l    df *ABS*	00000000 jutils.c
00000000 l    df *ABS*	00000000 jpeg_encoder.c
00000000 l    df *ABS*	00000000 fp-bit.c
0002b548 l     F .text	000001f4 _fpadd_parts
00000000 l    df *ABS*	00000000 fp-bit.c
00000000 l    df *ABS*	00000000 fp-bit.c
00000000 l    df *ABS*	00000000 fp-bit.c
00000000 l    df *ABS*	00000000 fp-bit.c
00000000 l    df *ABS*	00000000 fp-bit.c
00000000 l    df *ABS*	00000000 fp-bit.c
00000000 l    df *ABS*	00000000 fp-bit.c
00000000 l    df *ABS*	00000000 fp-bit.c
00000000 l    df *ABS*	00000000 fp-bit.c
00000000 l    df *ABS*	00000000 lib2-divmod.c
0002c0cc l     F .text	00000074 udivmodsi4
00000000 l    df *ABS*	00000000 lib2-mul.c
00000000 l    df *ABS*	00000000 libgcc2.c
00000000 l    df *ABS*	00000000 libgcc2.c
00000000 l    df *ABS*	00000000 fp-bit.c
00000000 l    df *ABS*	00000000 fp-bit.c
00000000 l    df *ABS*	00000000 fp-bit.c
00000000 l    df *ABS*	00000000 fp-bit.c
00000000 l    df *ABS*	00000000 fp-bit.c
00000000 l    df *ABS*	00000000 libgcc2.c
00000000 l    df *ABS*	00000000 libgcc2.c
00000000 l    df *ABS*	00000000 libgcc2.c
00000000 l    df *ABS*	00000000 ctype_.c
00041239 l     O .rodata	00000180 _ctype_b
00000000 l    df *ABS*	00000000 exit.c
00000000 l    df *ABS*	00000000 fclose.c
00000000 l    df *ABS*	00000000 fflush.c
00000000 l    df *ABS*	00000000 findfp.c
0002cd50 l     F .text	00000008 __fp_lock
0002cd58 l     F .text	00000008 __fp_unlock
00000000 l    df *ABS*	00000000 fopen.c
00000000 l    df *ABS*	00000000 fprintf.c
00000000 l    df *ABS*	00000000 fread.c
00000000 l    df *ABS*	00000000 mallocr.c
00000000 l    df *ABS*	00000000 fseek.c
00000000 l    df *ABS*	00000000 fstatr.c
00000000 l    df *ABS*	00000000 ftell.c
00000000 l    df *ABS*	00000000 fwalk.c
00000000 l    df *ABS*	00000000 fwrite.c
00000000 l    df *ABS*	00000000 getenv.c
00000000 l    df *ABS*	00000000 getenv_r.c
00000000 l    df *ABS*	00000000 impure.c
00041674 l     O .rwdata	00000400 impure_data
00000000 l    df *ABS*	00000000 int_errno.c
00000000 l    df *ABS*	00000000 makebuf.c
00000000 l    df *ABS*	00000000 malloc.c
00000000 l    df *ABS*	00000000 mallocr.c
00000000 l    df *ABS*	00000000 memcpy.c
00000000 l    df *ABS*	00000000 memset.c
00000000 l    df *ABS*	00000000 openr.c
00000000 l    df *ABS*	00000000 printf.c
00000000 l    df *ABS*	00000000 puts.c
00000000 l    df *ABS*	00000000 refill.c
0002ef1c l     F .text	0000001c lflush
00000000 l    df *ABS*	00000000 rewind.c
00000000 l    df *ABS*	00000000 sbrkr.c
00000000 l    df *ABS*	00000000 scanf.c
00000000 l    df *ABS*	00000000 sprintf.c
00000000 l    df *ABS*	00000000 sscanf.c
0002f304 l     F .text	00000008 eofread
00000000 l    df *ABS*	00000000 stdio.c
00000000 l    df *ABS*	00000000 strcat.c
00000000 l    df *ABS*	00000000 strcmp.c
00000000 l    df *ABS*	00000000 strcpy.c
00000000 l    df *ABS*	00000000 strlen.c
00000000 l    df *ABS*	00000000 strncmp.c
00000000 l    df *ABS*	00000000 strncpy.c
00000000 l    df *ABS*	00000000 tmpfile.c
00000000 l    df *ABS*	00000000 tmpnam.c
0002fa28 l     F .text	000000e0 worker
00000000 l    df *ABS*	00000000 vfprintf.c
0002fcc8 l     F .text	00000034 __sprint_r
0004142a l     O .rodata	00000010 blanks.3515
0004143a l     O .rodata	00000010 zeroes.3516
00000000 l    df *ABS*	00000000 vfscanf.c
00041452 l     O .rodata	00000022 basefix.3427
00000000 l    df *ABS*	00000000 writer.c
00000000 l    df *ABS*	00000000 wsetup.c
00000000 l    df *ABS*	00000000 __call_atexit.c
00000000 l    df *ABS*	00000000 closer.c
00000000 l    df *ABS*	00000000 dtoa.c
00033708 l     F .text	0000023c quorem
00000000 l    df *ABS*	00000000 environ.c
00044c98 l     O .bss	00000004 initial_env
00000000 l    df *ABS*	00000000 fdopen.c
00000000 l    df *ABS*	00000000 flags.c
00000000 l    df *ABS*	00000000 fvwrite.c
00000000 l    df *ABS*	00000000 isattyr.c
00000000 l    df *ABS*	00000000 iswspace.c
00000000 l    df *ABS*	00000000 locale.c
00041494 l     O .rodata	00000030 lconv
00000000 l    df *ABS*	00000000 lseekr.c
00000000 l    df *ABS*	00000000 mbrtowc.c
00000000 l    df *ABS*	00000000 mbtowc_r.c
00000000 l    df *ABS*	00000000 memchr.c
00000000 l    df *ABS*	00000000 memmove.c
00000000 l    df *ABS*	00000000 mprec.c
000415dc l     O .rodata	0000000c p05.2435
00000000 l    df *ABS*	00000000 readr.c
00000000 l    df *ABS*	00000000 mallocr.c
00000000 l    df *ABS*	00000000 remove.c
00000000 l    df *ABS*	00000000 s_isinfd.c
00000000 l    df *ABS*	00000000 s_isnand.c
00000000 l    df *ABS*	00000000 sccl.c
00000000 l    df *ABS*	00000000 sf_nan.c
00000000 l    df *ABS*	00000000 signalr.c
00000000 l    df *ABS*	00000000 strtod.c
00041e88 l     O .rwdata	00000014 fpi.2015
000415f8 l     O .rodata	00000028 tinytens
00041e9c l     O .rwdata	00000014 fpinan.2051
00000000 l    df *ABS*	00000000 strtol.c
00000000 l    df *ABS*	00000000 strtoll_r.c
00000000 l    df *ABS*	00000000 strtoul.c
00000000 l    df *ABS*	00000000 strtoull_r.c
00000000 l    df *ABS*	00000000 ungetc.c
00000000 l    df *ABS*	00000000 unlinkr.c
00000000 l    df *ABS*	00000000 mallocr.c
00000000 l    df *ABS*	00000000 gdtoa-gethex.c
00039a1c l     F .text	00000110 rshift
00000000 l    df *ABS*	00000000 gdtoa-hexnan.c
00000000 l    df *ABS*	00000000 libgcc2.c
00000000 l    df *ABS*	00000000 libgcc2.c
00000000 l    df *ABS*	00000000 libgcc2.c
00000000 l    df *ABS*	00000000 fp-bit.c
00000000 l    df *ABS*	00000000 fp-bit.c
00000000 l    df *ABS*	00000000 fp-bit.c
00000000 l    df *ABS*	00000000 fp-bit.c
0003b3c0 l     F .text	00000354 _fpadd_parts
00000000 l    df *ABS*	00000000 fp-bit.c
00000000 l    df *ABS*	00000000 fp-bit.c
00000000 l    df *ABS*	00000000 fp-bit.c
00000000 l    df *ABS*	00000000 fp-bit.c
00000000 l    df *ABS*	00000000 fp-bit.c
00000000 l    df *ABS*	00000000 fp-bit.c
00000000 l    df *ABS*	00000000 fp-bit.c
00000000 l    df *ABS*	00000000 fp-bit.c
00000000 l    df *ABS*	00000000 fp-bit.c
00000000 l    df *ABS*	00000000 fp-bit.c
00000000 l    df *ABS*	00000000 alt_close.c
0003bd34 l     F .text	00000050 alt_get_errno
00000000 l    df *ABS*	00000000 alt_dev.c
0003be50 l     F .text	0000002c alt_dev_null_write
00000000 l    df *ABS*	00000000 alt_env_lock.c
00000000 l    df *ABS*	00000000 alt_errno.c
00000000 l    df *ABS*	00000000 alt_exit.c
00000000 l    df *ABS*	00000000 alt_fstat.c
0003bef8 l     F .text	00000050 alt_get_errno
00000000 l    df *ABS*	00000000 alt_getpid.c
00000000 l    df *ABS*	00000000 alt_isatty.c
0003c018 l     F .text	00000050 alt_get_errno
00000000 l    df *ABS*	00000000 alt_kill.c
0003c10c l     F .text	00000050 alt_get_errno
00000000 l    df *ABS*	00000000 alt_load.c
0003c28c l     F .text	0000006c alt_load_section
00000000 l    df *ABS*	00000000 alt_lseek.c
0003c378 l     F .text	00000050 alt_get_errno
00000000 l    df *ABS*	00000000 alt_main.c
00000000 l    df *ABS*	00000000 alt_malloc_lock.c
00000000 l    df *ABS*	00000000 alt_open.c
0003c554 l     F .text	00000050 alt_get_errno
0003c5a4 l     F .text	000000f0 alt_file_locked
00000000 l    df *ABS*	00000000 alt_read.c
0003c7ec l     F .text	00000050 alt_get_errno
00000000 l    df *ABS*	00000000 alt_release_fd.c
00000000 l    df *ABS*	00000000 alt_sbrk.c
00043124 l     O .rwdata	00000004 heap_end
00000000 l    df *ABS*	00000000 alt_unlink.c
0003ca60 l     F .text	00000050 alt_get_errno
00000000 l    df *ABS*	00000000 alt_usleep.c
00000000 l    df *ABS*	00000000 alt_write.c
0003cb18 l     F .text	00000050 alt_get_errno
00000000 l    df *ABS*	00000000 alt_sys_init.c
0003cc58 l     F .text	00000038 alt_dev_reg
00042058 l     O .rwdata	00001060 jtag_uart
000430b8 l     O .rwdata	00000028 altera_hostfs
00000000 l    df *ABS*	00000000 altera_avalon_jtag_uart_fd.c
00000000 l    df *ABS*	00000000 altera_avalon_jtag_uart_init.c
0003cf50 l     F .text	00000204 altera_avalon_jtag_uart_irq
0003d154 l     F .text	000000a4 altera_avalon_jtag_uart_timeout
00000000 l    df *ABS*	00000000 altera_avalon_jtag_uart_ioctl.c
00000000 l    df *ABS*	00000000 altera_avalon_jtag_uart_read.c
00000000 l    df *ABS*	00000000 altera_avalon_jtag_uart_write.c
00000000 l    df *ABS*	00000000 altera_avalon_timer_sc.c
0003d790 l     F .text	00000074 alt_avalon_timer_sc_irq
00000000 l    df *ABS*	00000000 altera_hostfs.c
00043164 l     O .rwdata	00000004 hcinfo.2311
00043158 l     O .rwdata	00000004 hcinfo.2324
0004314c l     O .rwdata	00000004 hcinfo.2333
00043140 l     O .rwdata	00000004 hcinfo.2346
00043134 l     O .rwdata	00000004 hcinfo.2359
00043128 l     O .rwdata	00000004 hcinfo.2385
00000000 l    df *ABS*	00000000 alt_alarm_start.c
00000000 l    df *ABS*	00000000 alt_busy_sleep.c
00000000 l    df *ABS*	00000000 alt_dcache_flush_all.c
00000000 l    df *ABS*	00000000 alt_dev_llist_insert.c
0003e164 l     F .text	00000050 alt_get_errno
00000000 l    df *ABS*	00000000 alt_do_ctors.c
00000000 l    df *ABS*	00000000 alt_do_dtors.c
00000000 l    df *ABS*	00000000 alt_find_dev.c
00000000 l    df *ABS*	00000000 alt_find_file.c
00000000 l    df *ABS*	00000000 alt_fs_reg.c
00000000 l    df *ABS*	00000000 alt_get_fd.c
00000000 l    df *ABS*	00000000 alt_icache_flush_all.c
00000000 l    df *ABS*	00000000 alt_iic.c
00000000 l    df *ABS*	00000000 alt_iic_isr_register.c
00000000 l    df *ABS*	00000000 alt_io_redirect.c
0003e8ec l     F .text	000000e0 alt_open_fd
00000000 l    df *ABS*	00000000 alt_irq_vars.c
00000000 l    df *ABS*	00000000 alt_tick.c
00000000 l    df *ABS*	00000000 altera_nios2_qsys_irq.c
00000000 l    df *ABS*	00000000 atexit.c
00000000 l    df *ABS*	00000000 memcmp.c
00000000 l    df *ABS*	00000000 __atexit.c
00000000 l    df *ABS*	00000000 
00040d34 g     O .rodata	000000d0 jpeg_natural_order6
000369dc g     F .text	00000074 _mprec_log10
000106f0 g     F .text	00000498 jpeg_copy_critical_parameters
00036acc g     F .text	00000084 __any_on
000355b0 g     F .text	00000064 _isatty_r
00044ce8 g     O .bss	00000034 g_input_file_header
000414c4 g     O .rodata	00000028 __mprec_tinytens
0003c49c g     F .text	00000078 alt_main
0002f67c g     F .text	00000094 strcpy
0002c96c g     F .text	00000044 __ashldi3
0002ee84 g     F .text	00000084 _puts_r
04044e1c g     O .bss	00000100 alt_irq
0001a16c g     F .text	00000e30 jpeg_idct_13x13
00035728 g     F .text	0000006c _lseek_r
0004317c g       *ABS*	00000000 __flash_rwdata_start
0000efac g     F .text	000001b8 jinit_c_prep_controller
00035034 g     F .text	00000098 __sflags
0002fa18 g     F .text	00000010 tmpfile
0003b7c8 g     F .text	0000005c __eqdf2
0002461c g     F .text	000004bc jpeg_idct_3x6
040450ac g       *ABS*	00000000 __alt_heap_start
0003732c g     F .text	00000068 _kill_r
0002ee48 g     F .text	0000003c printf
0002f4dc g     F .text	0000005c __sseek
0002cdf4 g     F .text	0000010c __sinit
0003564c g     F .text	0000009c _setlocale_r
0002cd6c g     F .text	00000078 __sfmoreglue
000398d0 g     F .text	0000001c ungetc
0003c534 g     F .text	00000020 __malloc_unlock
0000d1f0 g     F .text	00000080 jpeg_default_qtables
0003d88c g     F .text	0000016c alt_hostfs_open
00037398 g     F .text	00001548 _strtod_r
00024f10 g     F .text	00000034 jpeg_get_small
000133f0 g     F .text	00000c74 jpeg_idct_float
0000d874 g     F .text	00000714 jpeg_set_colorspace
0000d2e4 g     F .text	00000084 jpeg_quality_scaling
00023598 g     F .text	000007e4 jpeg_idct_5x10
00035974 g     F .text	0000018c memmove
0000e1a8 g     F .text	000003a8 jpeg_simple_progression
0002cde4 g     F .text	00000010 _cleanup
00035b00 g     F .text	000000a8 _Balloc
0002ba14 g     F .text	000000a4 __fixsfsi
00012540 g     F .text	000006a0 jpeg_fdct_ifast
00040e04 g     O .rodata	000000a4 jpeg_natural_order5
0003b880 g     F .text	00000064 __gtdf2
00000000  w      *UND*	00000000 __errno
00017510 g     F .text	000000b4 jpeg_idct_1x1
00000000 g     F .entry	0000000c __reset
0002e0ec g     F .text	0000002c getenv
00000020 g       *ABS*	00000000 __flash_exceptions_start
00014b58 g     F .text	00000c44 jpeg_idct_islow
0002dcf4 g     F .text	00000068 _fstat_r
00044c88 g     O .bss	00000004 errno
00033290 g     F .text	00000024 __svfscanf
00000000 g       *ABS*	00000000 __alt_mem_sdram_controller
00003990 g     F .text	000000d8 jinit_arith_encoder
00018954 g     F .text	00000c68 jpeg_idct_11x11
0002c5d4 g     F .text	0000002c __make_fp
00044cac g     O .bss	00000004 alt_argv
0004b0e0 g       *ABS*	00000000 _gp
0003cae8 g     F .text	00000030 usleep
0002b788 g     F .text	00000058 __subsf3
0003bff8 g     F .text	00000020 getpid
0001bd1c g     F .text	00000e10 jpeg_idct_15x15
00021544 g     F .text	00000ca4 jpeg_idct_8x16
00041ed8 g     O .rwdata	00000180 alt_fd_list
0001ea44 g     F .text	00000b20 jpeg_idct_14x7
0000d270 g     F .text	00000074 jpeg_set_linear_quality
0003dbd4 g     F .text	000000b8 alt_hostfs_seek
0003e30c g     F .text	00000090 alt_find_dev
0002eb94 g     F .text	00000140 memcpy
0003a334 g     F .text	0000028c __hexnan
0001db74 g     F .text	00000ed0 jpeg_idct_16x8
00001124 g     F .text	00000044 jpeg_write_m_byte
0002cd60 g     F .text	0000000c _cleanup_r
0002b0cc g     F .text	00000058 jround_up
0003ba00 g     F .text	000000d4 __floatsidf
0003e4b0 g     F .text	00000084 alt_fs_reg
0003e9cc g     F .text	00000078 alt_io_redirect
0003b948 g     F .text	0000005c __ltdf2
0003edc0 g       *ABS*	00000000 __DTOR_END__
0000d588 g     F .text	000001fc jpeg_set_defaults
0002ef08 g     F .text	00000014 puts
000357f8 g     F .text	00000040 mbrtowc
0002fb08 g     F .text	00000098 _tmpnam_r
00023d7c g     F .text	000008a0 jpeg_idct_4x8
00033244 g     F .text	0000004c _vfscanf_r
00036938 g     F .text	000000a4 __ratio
00040ea8 g     O .rodata	00000080 jpeg_natural_order4
0003d354 g     F .text	00000218 altera_avalon_jtag_uart_read
000252a0 g     F .text	00000028 jpeg_mem_init
0002e3e8 g     F .text	00000014 malloc
0002ee1c g     F .text	0000002c _printf_r
000371e8 g     F .text	00000014 remove
0002b084 g     F .text	00000048 jdiv_round_up
0002c1ec g     F .text	00000008 __udivsi3
0003c068 g     F .text	000000a4 isatty
00035614 g     F .text	00000038 iswspace
00041514 g     O .rodata	000000c8 __mprec_tens
000356e8 g     F .text	0000000c __locale_charset
0003a5c0 g     F .text	00000084 __fixunsdfsi
00044c94 g     O .bss	00000004 __malloc_top_pad
00037394 g     F .text	00000004 _getpid_r
00022cc4 g     F .text	000008d4 jpeg_idct_6x12
0002113c g     F .text	000002e4 jpeg_idct_4x2
0003928c g     F .text	00000024 strtoul
00043108 g     O .rwdata	00000004 __mb_cur_max
000356f4 g     F .text	0000000c _localeconv_r
000392b0 g     F .text	00000394 _strtoull_r
00035f30 g     F .text	0000003c __i2b
000350cc g     F .text	000004e4 __sfvwrite_r
0002f170 g     F .text	00000064 _sbrk_r
0001af9c g     F .text	00000d80 jpeg_idct_14x14
0003da64 g     F .text	000000b8 alt_hostfs_read
000251e4 g     F .text	000000bc jpeg_open_backing_store
00016fa4 g     F .text	00000334 jpeg_idct_3x3
00036b50 g     F .text	0000006c _read_r
00041e7c g     O .rwdata	0000000c __lc_ctype
0004311c g     O .rwdata	00000004 alt_max_fd
0002c824 g     F .text	00000104 __unpack_d
0002c9e8 g     F .text	0000013c _fclose_r
0002cd20 g     F .text	00000030 fflush
00044c90 g     O .bss	00000004 __malloc_max_sbrked_mem
0003b714 g     F .text	00000054 __adddf3
000366ac g     F .text	00000148 __b2d
000053f4 g     F .text	00000584 jinit_color_converter
0003ac94 g     F .text	00000628 __umoddi3
0003c3c8 g     F .text	000000d4 lseek
000430f4 g     O .rwdata	00000004 _global_impure_ptr
0000cf28 g     F .text	00000058 jpeg_destroy
0003ee94 g     O .rodata	000001c8 jpeg_aritab
00036bbc g     F .text	000005fc _realloc_r
040450ac g       *ABS*	00000000 __bss_end
0003e7fc g     F .text	000000f0 alt_iic_isr_register
0002b124 g     F .text	000000d0 jcopy_sample_rows
0003eadc g     F .text	00000104 alt_tick
04044d1c g     O .bss	00000100 __hexdig
0002b3a8 g     F .text	000001a0 convert_picture
0003a644 g     F .text	00000650 __udivdi3
000414ec g     O .rodata	00000028 __mprec_bigtens
00035d14 g     F .text	00000104 __s2b
00016018 g     F .text	00000608 jpeg_idct_6x6
0002bfb0 g     F .text	0000011c __floatunsidf
0003644c g     F .text	00000058 __mcmp
0000cfd4 g     F .text	00000054 jpeg_alloc_huff_table
000430f0 g     O .rwdata	00000004 __ctype_ptr
0002d00c g     F .text	00000018 __fp_lock_all
0003e7b0 g     F .text	0000004c alt_ic_irq_enabled
00009b80 g     F .text	0000017c jinit_c_main_controller
0003ea44 g     F .text	00000098 alt_alarm_stop
00038c94 g     F .text	00000024 strtol
00044cb4 g     O .bss	00000004 alt_irq_active
0003d9f8 g     F .text	0000006c alt_hostfs_close
000000ec g     F .exceptions	000000cc alt_irq_handler
00041eb0 g     O .rwdata	00000028 alt_dev_null
000407cc g     O .rodata	00000200 jpeg_std_message_table
0002c50c g     F .text	000000c8 __unpack_f
00000f48 g     F .text	0000011c jpeg_write_marker
00024ad8 g     F .text	00000310 jpeg_idct_2x4
0003e148 g     F .text	0000001c alt_dcache_flush_all
00035e18 g     F .text	00000068 __hi0bits
0003bad4 g     F .text	000000d4 __fixdfsi
0001cb2c g     F .text	00001048 jpeg_idct_16x16
000388e0 g     F .text	0000001c strtod
0002adf0 g     F .text	00000294 jinit_2pass_quantizer
0004317c g       *ABS*	00000000 __ram_rwdata_end
000398ec g     F .text	00000064 _unlink_r
00043114 g     O .rwdata	00000008 alt_dev_list
0003cb68 g     F .text	000000f0 write
00009708 g     F .text	00000144 jinit_huff_encoder
0002f124 g     F .text	00000038 _rewind_r
0003b310 g     F .text	0000005c __gtsf2
00043104 g     O .rwdata	00000004 environ
00041674 g       *ABS*	00000000 __ram_rodata_end
0003bf48 g     F .text	000000b0 fstat
0002d1b0 g     F .text	00000024 fprintf
0002c928 g     F .text	00000044 __lshrdi3
0003c15c g     F .text	00000130 kill
0003b9a4 g     F .text	0000005c __ledf2
00011c88 g     F .text	000008b8 jpeg_fdct_float
0002f540 g     F .text	00000098 strcat
000361c4 g     F .text	0000012c __pow5mult
00044ca4 g     O .bss	00000004 __nlocale_changed
0002c1f4 g     F .text	00000008 __umodsi3
0002f214 g     F .text	0000002c _scanf_r
00011bc8 g     F .text	000000c0 jpeg_std_error
040450ac g       *ABS*	00000000 end
0002c3e0 g     F .text	0000012c __pack_f
00040af0 g     O .rodata	00000140 jpeg_natural_order
0002dcd0 g     F .text	00000024 fseek
000252c8 g     F .text	00000020 jpeg_mem_term
00000938 g     F .text	00000034 read_stdin
0003ce90 g     F .text	000000c0 altera_avalon_jtag_uart_init
000195bc g     F .text	00000bb0 jpeg_idct_12x12
0003edc0 g       *ABS*	00000000 __CTOR_LIST__
08000000 g       *ABS*	00000000 __alt_stack_pointer
0003d804 g     F .text	00000088 alt_avalon_timer_sc_init
0002c334 g     F .text	000000ac __clzsi2
0003d56c g     F .text	00000224 altera_avalon_jtag_uart_write
0002f950 g     F .text	000000c8 _tmpfile_r
0002cffc g     F .text	00000004 __sfp_lock_acquire
0003587c g     F .text	000000f8 memchr
0002fcfc g     F .text	00001e7c ___vfprintf_internal_r
0002f240 g     F .text	00000058 _sprintf_r
0002d58c g     F .text	000002d0 _free_r
00016620 g     F .text	00000564 jpeg_idct_5x5
0000b048 g     F .text	000000cc jinit_marker_writer
00012be0 g     F .text	00000810 jpeg_fdct_islow
00033504 g     F .text	000001a0 __call_exitprocs
000014c0 g     F .text	000001b0 jpeg_write_raw_data
000287a0 g     F .text	00000144 jinit_1pass_quantizer
00026d74 g     F .text	000002bc jinit_memory_mgr
00044ca0 g     O .bss	00000004 __mlocale_changed
000430fc g     O .rwdata	00000004 __malloc_sbrk_base
000001b8 g     F .text	0000003c _start
00044cb8 g     O .bss	00000004 _alt_tick_rate
00038cb8 g     F .text	00000330 _strtoll_r
000362f0 g     F .text	0000015c __lshift
00044cbc g     O .bss	00000004 _alt_nticks
0003c83c g     F .text	000000f4 read
00014064 g     F .text	00000af4 jpeg_idct_ifast
0003ccc4 g     F .text	00000068 alt_sys_init
0002b970 g     F .text	000000a4 __floatsisf
0002edb0 g     F .text	0000006c _open_r
00017f0c g     F .text	00000a48 jpeg_idct_10x10
0003ec90 g     F .text	00000130 __register_exitproc
00024fe8 g     F .text	00000040 jpeg_mem_available
0002f79c g     F .text	000000fc strncmp
0002b23c g     F .text	0000003c jzero_far
00035f6c g     F .text	00000258 __multiply
0003d1f8 g     F .text	00000068 altera_avalon_jtag_uart_close
0002c1fc g     F .text	00000028 __mulsi3
00041674 g       *ABS*	00000000 __ram_rwdata_start
0003edc0 g       *ABS*	00000000 __ram_rodata_start
0002f898 g     F .text	000000b8 strncpy
0003cab0 g     F .text	00000038 unlink
00044cc0 g     O .bss	00000028 __malloc_current_mallinfo
0003b2bc g     F .text	00000054 __eqsf2
000367f4 g     F .text	00000144 __d2b
0003cd2c g     F .text	00000060 altera_avalon_jtag_uart_read_fd
00038fe8 g     F .text	000002a4 _strtoul_r
00034f60 g     F .text	000000b8 _fdopen_r
0003e534 g     F .text	000000d4 alt_get_fd
0003dff4 g     F .text	00000154 alt_busy_sleep
000172d8 g     F .text	00000238 jpeg_idct_2x2
0003bc64 g     F .text	000000d0 __fpcmp_parts_d
000336a4 g     F .text	00000064 _close_r
000001f4 g     F .text	00000144 bmp_extract_header
0003ec14 g     F .text	0000007c memcmp
0003cdec g     F .text	00000050 altera_avalon_jtag_uart_close_fd
040450ac g       *ABS*	00000000 __alt_stack_base
0003ce3c g     F .text	00000054 altera_avalon_jtag_uart_ioctl_fd
0002dfe0 g     F .text	000000b0 _fwrite_r
00035018 g     F .text	0000001c fdopen
0002f30c g     F .text	0000007c sscanf
00000c40 g     F .text	00000104 jpeg_suppress_tables
00033390 g     F .text	00000174 __swsetup_r
0002bd9c g     F .text	000001b4 __divdf3
0002cf00 g     F .text	000000fc __sfp
00036a50 g     F .text	0000007c __copybits
00041a74 g     O .rwdata	00000408 __malloc_av_
0002d008 g     F .text	00000004 __sinit_lock_release
0002bab8 g     F .text	000002e4 __muldf3
0002f400 g     F .text	00000054 __sread
00041014 g     O .rodata	00000010 __thenan_sf
0002d410 g     F .text	00000040 fread
0003e39c g     F .text	00000114 alt_find_file
00000c10 g     F .text	00000030 jpeg_abort_compress
0003e1b4 g     F .text	000000a0 alt_dev_llist_insert
0003c514 g     F .text	00000020 __malloc_lock
0002d188 g     F .text	00000028 _fprintf_r
0003c9b0 g     F .text	000000b0 sbrk
0002cb38 g     F .text	000001e8 _fflush_r
00039950 g     F .text	000000cc _calloc_r
0002d16c g     F .text	0000001c fopen
00044c84 g       *ABS*	00000000 __bss_start
0002ecd4 g     F .text	000000dc memset
0002b278 g     F .text	00000130 main
0000d028 g     F .text	000001c8 jpeg_add_quant_table
0000ce80 g     F .text	000000a8 jpeg_abort
00044cb0 g     O .bss	00000004 alt_envp
00044c8c g     O .bss	00000004 __malloc_max_total_mem
0003cd8c g     F .text	00000060 altera_avalon_jtag_uart_write_fd
0002de6c g     F .text	00000014 ftell
0003b36c g     F .text	00000054 __ltsf2
0002d1d4 g     F .text	0000023c _fread_r
0002f538 g     F .text	00000008 __sclose
08000000 g       *ABS*	00000000 __alt_heap_limit
00001230 g     F .text	000000fc jpeg_start_compress
0002cb24 g     F .text	00000014 fclose
0000cf80 g     F .text	00000054 jpeg_alloc_quant_table
00038a1c g     F .text	00000278 _strtol_r
0002bf50 g     F .text	00000060 __truncdfsf2
0002e118 g     F .text	0000010c _findenv_r
00000be0 g     F .text	00000030 jpeg_destroy_compress
04044f1c g     O .bss	00000190 _atexit0
00033944 g     F .text	0000161c _dtoa_r
0002e410 g     F .text	00000784 _malloc_r
00001168 g     F .text	000000c8 jpeg_write_tables
0000d784 g     F .text	000000f0 jpeg_default_colorspace
00043120 g     O .rwdata	00000004 alt_errno
00024f7c g     F .text	00000034 jpeg_get_large
00039644 g     F .text	000000f0 __submore
0001f564 g     F .text	000008ec jpeg_idct_12x6
0003be9c g     F .text	00000020 __env_unlock
0002e0d0 g     F .text	0000001c _findenv
0002de80 g     F .text	000000a8 _fwalk
00000338 g     F .text	000001c4 bmp_rearrange_comps
0002fcb4 g     F .text	00000014 tmpnam
00035838 g     F .text	00000044 _mbtowc_r
0002c140 g     F .text	00000050 __divsi3
00041024 g     O .rodata	00000014 __thenan_df
0002d450 g     F .text	0000013c _malloc_trim_r
0003edc0 g       *ABS*	00000000 __CTOR_END__
0002b7e0 g     F .text	00000190 __mulsf3
0002f5d8 g     F .text	000000a4 strcmp
000009a0 g     F .text	00000240 jpeg_CreateCompress
0003edc0 g       *ABS*	00000000 __flash_rodata_start
0003edc0 g       *ABS*	00000000 __DTOR_LIST__
0003b824 g     F .text	0000005c __nedf2
0003cc90 g     F .text	00000034 alt_irq_init
0003c930 g     F .text	00000080 alt_release_fd
0002f298 g     F .text	0000006c sprintf
00041038 g     O .rodata	00000100 __clz_tab
00044c9c g     O .bss	00000004 _PathLocale
000388fc g     F .text	00000120 strtof
0003ec00 g     F .text	00000014 atexit
00024fb0 g     F .text	00000038 jpeg_free_large
00033324 g     F .text	0000006c _write_r
00040f28 g     O .rodata	00000064 jpeg_natural_order3
00035700 g     F .text	0000001c setlocale
0002f1d4 g     F .text	00000040 scanf
00011694 g     F .text	000001b8 jpeg_mem_dest
000063b4 g     F .text	000000bc jinit_forward_dct
00037324 g     F .text	00000008 nanf
000430f8 g     O .rwdata	00000004 _impure_ptr
00044ca8 g     O .bss	00000004 alt_argc
00035794 g     F .text	00000064 _mbrtowc_r
0003e2b0 g     F .text	0000005c _do_dtors
0002d85c g     F .text	00000474 _fseek_r
000221e8 g     F .text	00000adc jpeg_idct_7x14
0002ef38 g     F .text	000001ec __srefill_r
00000020 g       .exceptions	00000000 alt_irq_entry
0003664c g     F .text	00000060 __ulp
000371fc g     F .text	00000038 __isinfd
0002d024 g     F .text	00000018 __fp_unlock_all
0000984c g     F .text	00000104 jinit_compress_master
0000b114 g     F .text	00000058 jpeg_calc_jpeg_dimensions
0000080c g     F .text	0000012c keymatch
00020cbc g     F .text	00000480 jpeg_idct_6x3
0004310c g     O .rwdata	00000008 alt_fs_list
0001579c g     F .text	0000087c jpeg_idct_7x7
00040c30 g     O .rodata	00000104 jpeg_natural_order7
0003db1c g     F .text	000000b8 alt_hostfs_write
00000020 g       *ABS*	00000000 __ram_exceptions_start
0003571c g     F .text	0000000c localeconv
00000d44 g     F .text	00000204 jpeg_finish_compress
00024de8 g     F .text	00000128 jpeg_idct_1x2
00044d1c g     O .bss	04000000 g_file_buffer
00044c84 g     O .bss	00000004 state_led
0003e624 g     F .text	00000050 alt_ic_isr_register
0002fba0 g     F .text	000000f8 _tempnam_r
0002e090 g     F .text	00000040 fwrite
00039b2c g     F .text	00000090 __hexdig_init
0002f388 g     F .text	00000078 _sscanf_r
0004317c g       *ABS*	00000000 _edata
00020618 g     F .text	000006a4 jpeg_idct_8x4
040450ac g       *ABS*	00000000 _end
00021420 g     F .text	00000124 jpeg_idct_2x1
000001b8 g       *ABS*	00000000 __ram_exceptions_end
000332b4 g     F .text	00000070 vfscanf
0003d260 g     F .text	000000f4 altera_avalon_jtag_uart_ioctl
0002f15c g     F .text	00000014 rewind
0003e710 g     F .text	000000a0 alt_ic_irq_disable
0002f454 g     F .text	00000088 __swrite
00043100 g     O .rwdata	00000004 __malloc_trim_threshold
0003ebe0 g     F .text	00000020 altera_nios2_qsys_irq_init
00016b84 g     F .text	00000420 jpeg_idct_4x4
0002c9b0 g     F .text	00000038 exit
0002df28 g     F .text	000000b8 _fwalk_reent
00001064 g     F .text	000000c0 jpeg_write_m_header
000364a4 g     F .text	000001a8 __mdiff
0002c190 g     F .text	0000005c __modsi3
08000000 g       *ABS*	00000000 __alt_data_end
00000020 g     F .exceptions	00000000 alt_exception
0002d000 g     F .text	00000004 __sfp_lock_release
0000068c g     F .text	00000180 jpeg_encode
00010234 g     F .text	000003f4 jinit_downsampler
00037260 g     F .text	000000c4 __sccl
00041138 g     O .rodata	00000101 _ctype_
0000d368 g     F .text	00000054 jpeg_set_quality
000115f0 g     F .text	000000a4 jpeg_stdio_dest
0003bba8 g     F .text	000000bc __fpcmp_parts_f
0002d03c g     F .text	00000130 _fopen_r
00037234 g     F .text	0000002c __isnand
0003bebc g     F .text	0000003c _exit
0003deb4 g     F .text	00000140 alt_alarm_start
0002c224 g     F .text	00000110 __muldi3
0002fc98 g     F .text	0000001c tempnam
0002e240 g     F .text	000001a8 __smakebuf_r
0002f710 g     F .text	0000008c strlen
0003c694 g     F .text	00000158 open
0000132c g     F .text	00000194 jpeg_write_scanlines
0003b8e4 g     F .text	00000064 __gedf2
000371b8 g     F .text	00000030 _remove_r
00039bbc g     F .text	00000778 __gethex
000004fc g     F .text	00000190 bmp_extract
0002b1f4 g     F .text	00000048 jcopy_block_row
0002dd5c g     F .text	00000110 _ftell_r
00010628 g     F .text	000000c8 jpeg_write_coefficients
0003e608 g     F .text	0000001c alt_icache_flush_all
00043170 g     O .rwdata	00000004 alt_priority_mask
0003e674 g     F .text	0000009c alt_ic_irq_enable
00024f44 g     F .text	00000038 jpeg_free_small
00031b78 g     F .text	00000024 __vfprintf_internal
0003be7c g     F .text	00000020 __env_lock
0000096c g     F .text	00000034 write_stdout
0000ccd0 g     F .text	000001b0 jinit_c_master_control
0003b768 g     F .text	00000060 __subdf3
00035e80 g     F .text	000000b0 __lo0bits
00031b9c g     F .text	000016a8 __svfscanf_r
00043174 g     O .rwdata	00000008 alt_alarm_list
00039734 g     F .text	0000019c _ungetc_r
0003e254 g     F .text	0000005c _do_ctors
000047b8 g     F .text	000001d0 jinit_c_coef_controller
0003bd84 g     F .text	000000cc close
0002b73c g     F .text	0000004c __addsf3
0001fe50 g     F .text	000007c8 jpeg_idct_10x5
00040f8c g     O .rodata	00000050 jpeg_natural_order2
0003c2f8 g     F .text	00000080 alt_load
0002c600 g     F .text	00000224 __pack_d
000175c4 g     F .text	00000948 jpeg_idct_9x9
0002e3fc g     F .text	00000014 free
0002d004 g     F .text	00000004 __sinit_lock_acquire
00035bd0 g     F .text	00000144 __multadd
00035ba8 g     F .text	00000028 _Bfree
0002e224 g     F .text	0000001c _getenv_r
0003dc8c g     F .text	00000228 alt_hostfs_fstat



Disassembly of section .entry:

00000000 <__reset>:
 * Jump to the _start entry point in the .text section if reset code
 * is allowed or if optimizing for RTL simulation.
 */
#if defined(ALT_ALLOW_CODE_AT_RESET) || defined(ALT_SIM_OPTIMIZE)
    /* Jump to the _start entry point in the .text section. */
    movhi r1, %hi(_start)
   0:	00400034 	movhi	at,0
    ori r1, r1, %lo(_start)
   4:	08406e14 	ori	at,at,440
    jmp r1
   8:	0800683a 	jmp	at
	...

Disassembly of section .exceptions:

00000020 <alt_exception>:

#else /* ALT_EXCEPTION_STACK disabled */
        /* 
         * Reserve space on normal stack for registers about to be pushed.
         */
        addi  sp, sp, -76
  20:	deffed04 	addi	sp,sp,-76
         * documentation for details).
         *
         * Leave a gap in the stack frame at 4(sp) for the muldiv handler to
         * store zero into.
         */
        stw   ra,  0(sp)
  24:	dfc00015 	stw	ra,0(sp)
        stw   r1,   8(sp)
  28:	d8400215 	stw	at,8(sp)
        stw   r2,  12(sp)
  2c:	d8800315 	stw	r2,12(sp)
        stw   r3,  16(sp)
  30:	d8c00415 	stw	r3,16(sp)
        stw   r4,  20(sp)
  34:	d9000515 	stw	r4,20(sp)
        stw   r5,  24(sp)
  38:	d9400615 	stw	r5,24(sp)
        stw   r6,  28(sp)
  3c:	d9800715 	stw	r6,28(sp)
        stw   r7,  32(sp)
  40:	d9c00815 	stw	r7,32(sp)
        rdctl r5, estatus   /* Read early to avoid usage stall */
  44:	000b307a 	rdctl	r5,estatus
        stw   r8,  36(sp)
  48:	da000915 	stw	r8,36(sp)
        stw   r9,  40(sp)
  4c:	da400a15 	stw	r9,40(sp)
        stw   r10, 44(sp)
  50:	da800b15 	stw	r10,44(sp)
        stw   r11, 48(sp)
  54:	dac00c15 	stw	r11,48(sp)
        stw   r12, 52(sp)
  58:	db000d15 	stw	r12,52(sp)
        stw   r13, 56(sp)
  5c:	db400e15 	stw	r13,56(sp)
        stw   r14, 60(sp)
  60:	db800f15 	stw	r14,60(sp)
        stw   r15, 64(sp)
  64:	dbc01015 	stw	r15,64(sp)
        /*
         * ea-4 contains the address of the instruction being executed
         * when the exception occured. For interrupt exceptions, we will
         * will be re-issue the isntruction. Store it in 72(sp)
         */
        stw   r5,  68(sp)  /* estatus */
  68:	d9401115 	stw	r5,68(sp)
        addi  r15, ea, -4  /* instruction that caused exception */
  6c:	ebffff04 	addi	r15,ea,-4
        stw   r15,  72(sp)
  70:	dbc01215 	stw	r15,72(sp)
#else
        /*
         * Test to see if the exception was a software exception or caused 
         * by an external interrupt, and vector accordingly.
         */
        rdctl r4, ipending
  74:	0009313a 	rdctl	r4,ipending
        andi  r2, r5, 1
  78:	2880004c 	andi	r2,r5,1
        beq   r2, zero, .Lnot_irq
  7c:	10000326 	beq	r2,zero,8c <alt_exception+0x6c>
        beq   r4, zero, .Lnot_irq
  80:	20000226 	beq	r4,zero,8c <alt_exception+0x6c>
        /*
         * Now that all necessary registers have been preserved, call 
         * alt_irq_handler() to process the interrupts.
         */

        call alt_irq_handler
  84:	00000ec0 	call	ec <alt_irq_handler>

        .section .exceptions.irqreturn, "xa"

        br    .Lexception_exit
  88:	00000306 	br	98 <alt_exception_unknown+0x4>
         * upon completion, so we write ea (address of instruction *after*
         * the one where the exception occured) into 72(sp). The actual
         * instruction that caused the exception is written in r2, which these
         * handlers will utilize.
         */
        stw   ea,  72(sp)  /* Don't re-issue */
  8c:	df401215 	stw	ea,72(sp)
        ldw   r2, -4(ea)   /* Instruction that caused exception */
  90:	e8bfff17 	ldw	r2,-4(ea)

00000094 <alt_exception_unknown>:
#ifdef NIOS2_HAS_DEBUG_STUB
       /*
        *  Either tell the user now (if there is a debugger attached) or go into
        *  the debug monitor which will loop until a debugger is attached.
        */
        break
  94:	003da03a 	break	0
        /* 
         * Restore the saved registers, so that all general purpose registers 
         * have been restored to their state at the time the interrupt occured.
         */

        ldw   r5,  68(sp)
  98:	d9401117 	ldw	r5,68(sp)
        ldw   ea,  72(sp)  /* This becomes the PC once eret is executed */
  9c:	df401217 	ldw	ea,72(sp)
        ldw   ra,   0(sp)
  a0:	dfc00017 	ldw	ra,0(sp)

        wrctl estatus, r5
  a4:	2801707a 	wrctl	estatus,r5

        ldw   r1,   8(sp)
  a8:	d8400217 	ldw	at,8(sp)
        ldw   r2,  12(sp)
  ac:	d8800317 	ldw	r2,12(sp)
        ldw   r3,  16(sp)
  b0:	d8c00417 	ldw	r3,16(sp)
        ldw   r4,  20(sp)
  b4:	d9000517 	ldw	r4,20(sp)
        ldw   r5,  24(sp)
  b8:	d9400617 	ldw	r5,24(sp)
        ldw   r6,  28(sp)
  bc:	d9800717 	ldw	r6,28(sp)
        ldw   r7,  32(sp)
  c0:	d9c00817 	ldw	r7,32(sp)

#if defined(ALT_EXCEPTION_STACK) && defined(ALT_STACK_CHECK)
        ldw   et, %gprel(alt_exception_old_stack_limit)(gp)
#endif

        ldw   r8,  36(sp)
  c4:	da000917 	ldw	r8,36(sp)
        ldw   r9,  40(sp)
  c8:	da400a17 	ldw	r9,40(sp)
        ldw   r10, 44(sp)
  cc:	da800b17 	ldw	r10,44(sp)
        ldw   r11, 48(sp)
  d0:	dac00c17 	ldw	r11,48(sp)
        ldw   r12, 52(sp)
  d4:	db000d17 	ldw	r12,52(sp)
        ldw   r13, 56(sp)
  d8:	db400e17 	ldw	r13,56(sp)
        ldw   r14, 60(sp)
  dc:	db800f17 	ldw	r14,60(sp)
        ldw   r15, 64(sp)
  e0:	dbc01017 	ldw	r15,64(sp)
        stw   et, %gprel(alt_stack_limit_value)(gp)
        stw   zero, %gprel(alt_exception_old_stack_limit)(gp)
#endif /* ALT_STACK_CHECK */
        ldw   sp,  76(sp)
#else /* ALT_EXCEPTION_STACK disabled */
        addi  sp, sp, 76
  e4:	dec01304 	addi	sp,sp,76

        /*
         * Return to the interrupted instruction.
         */

        eret
  e8:	ef80083a 	eret

000000ec <alt_irq_handler>:
 * instruction is present if the macro ALT_CI_INTERRUPT_VECTOR defined.
 */

void alt_irq_handler (void) __attribute__ ((section (".exceptions")));
void alt_irq_handler (void)
{
  ec:	defff904 	addi	sp,sp,-28
  f0:	dfc00615 	stw	ra,24(sp)
  f4:	df000515 	stw	fp,20(sp)
  f8:	df000504 	addi	fp,sp,20
  
  /*
   * Notify the operating system that we are at interrupt level.
   */ 
  
  ALT_OS_INT_ENTER();
  fc:	0001883a 	nop
#ifndef NIOS2_EIC_PRESENT
static ALT_INLINE alt_u32 ALT_ALWAYS_INLINE alt_irq_pending (void)
{
  alt_u32 active;

  NIOS2_READ_IPENDING (active);
 100:	0005313a 	rdctl	r2,ipending
 104:	e0bffe15 	stw	r2,-8(fp)

  return active;
 108:	e0bffe17 	ldw	r2,-8(fp)
   * Consider the case where the high priority interupt is asserted during
   * the interrupt entry sequence for a lower priority interrupt to see why
   * this is the case.
   */

  active = alt_irq_pending ();
 10c:	e0bffb15 	stw	r2,-20(fp)

  do
  {
    i = 0;
 110:	e03ffd15 	stw	zero,-12(fp)
    mask = 1;
 114:	00800044 	movi	r2,1
 118:	e0bffc15 	stw	r2,-16(fp)
     * called to clear the interrupt condition.
     */

    do
    {
      if (active & mask)
 11c:	e0fffb17 	ldw	r3,-20(fp)
 120:	e0bffc17 	ldw	r2,-16(fp)
 124:	1884703a 	and	r2,r3,r2
 128:	10001726 	beq	r2,zero,188 <alt_irq_handler+0x9c>
      { 
#ifdef ALT_ENHANCED_INTERRUPT_API_PRESENT
        alt_irq[i].handler(alt_irq[i].context); 
 12c:	00c10134 	movhi	r3,1028
 130:	18d38704 	addi	r3,r3,19996
 134:	e0bffd17 	ldw	r2,-12(fp)
 138:	100490fa 	slli	r2,r2,3
 13c:	1885883a 	add	r2,r3,r2
 140:	10c00017 	ldw	r3,0(r2)
 144:	01010134 	movhi	r4,1028
 148:	21138704 	addi	r4,r4,19996
 14c:	e0bffd17 	ldw	r2,-12(fp)
 150:	100490fa 	slli	r2,r2,3
 154:	2085883a 	add	r2,r4,r2
 158:	10800104 	addi	r2,r2,4
 15c:	10800017 	ldw	r2,0(r2)
 160:	1009883a 	mov	r4,r2
 164:	183ee83a 	callr	r3
#else
        alt_irq[i].handler(alt_irq[i].context, i); 
#endif
        break;
 168:	0001883a 	nop
#ifndef NIOS2_EIC_PRESENT
static ALT_INLINE alt_u32 ALT_ALWAYS_INLINE alt_irq_pending (void)
{
  alt_u32 active;

  NIOS2_READ_IPENDING (active);
 16c:	0005313a 	rdctl	r2,ipending
 170:	e0bfff15 	stw	r2,-4(fp)

  return active;
 174:	e0bfff17 	ldw	r2,-4(fp)
      mask <<= 1;
      i++;

    } while (1);

    active = alt_irq_pending ();
 178:	e0bffb15 	stw	r2,-20(fp)
    
  } while (active);
 17c:	e0bffb17 	ldw	r2,-20(fp)
 180:	103fe31e 	bne	r2,zero,110 <alt_irq_handler+0x24>

  /*
   * Notify the operating system that interrupt processing is complete.
   */ 

  ALT_OS_INT_EXIT();
 184:	00000706 	br	1a4 <alt_irq_handler+0xb8>
#else
        alt_irq[i].handler(alt_irq[i].context, i); 
#endif
        break;
      }
      mask <<= 1;
 188:	e0bffc17 	ldw	r2,-16(fp)
 18c:	1085883a 	add	r2,r2,r2
 190:	e0bffc15 	stw	r2,-16(fp)
      i++;
 194:	e0bffd17 	ldw	r2,-12(fp)
 198:	10800044 	addi	r2,r2,1
 19c:	e0bffd15 	stw	r2,-12(fp)

    } while (1);
 1a0:	003fde06 	br	11c <alt_irq_handler+0x30>
  /*
   * Notify the operating system that interrupt processing is complete.
   */ 

  ALT_OS_INT_EXIT();
}
 1a4:	e037883a 	mov	sp,fp
 1a8:	dfc00117 	ldw	ra,4(sp)
 1ac:	df000017 	ldw	fp,0(sp)
 1b0:	dec00204 	addi	sp,sp,8
 1b4:	f800283a 	ret

Disassembly of section .text:

000001b8 <_start>:

    /*
     * Now that the caches are initialized, set up the stack pointer and global pointer.
     * The values provided by the linker are assumed to be correctly aligned.
     */
    movhi sp, %hi(__alt_stack_pointer)
     1b8:	06c20034 	movhi	sp,2048
    ori sp, sp, %lo(__alt_stack_pointer)
     1bc:	dec00014 	ori	sp,sp,0
    movhi gp, %hi(_gp)
     1c0:	06800134 	movhi	gp,4
    ori gp, gp, %lo(_gp)
     1c4:	d6ac3814 	ori	gp,gp,45280
 */
#ifndef ALT_SIM_OPTIMIZE
    /* Log that the BSS is about to be cleared. */
    ALT_LOG_PUTS(alt_log_msg_bss)

    movhi r2, %hi(__bss_start)
     1c8:	00800134 	movhi	r2,4
    ori r2, r2, %lo(__bss_start)
     1cc:	10932114 	ori	r2,r2,19588

    movhi r3, %hi(__bss_end)
     1d0:	00c10134 	movhi	r3,1028
    ori r3, r3, %lo(__bss_end)
     1d4:	18d42b14 	ori	r3,r3,20652

    beq r2, r3, 1f
     1d8:	10c00326 	beq	r2,r3,1e8 <_start+0x30>

0:
    stw zero, (r2)
     1dc:	10000015 	stw	zero,0(r2)
    addi r2, r2, 4
     1e0:	10800104 	addi	r2,r2,4
    bltu r2, r3, 0b
     1e4:	10fffd36 	bltu	r2,r3,1dc <_start+0x24>
     * section aren't defined until alt_load() has been called).
     */
    mov   et, zero
#endif

    call alt_load
     1e8:	003c2f80 	call	3c2f8 <alt_load>

    /* Log that alt_main is about to be called. */
    ALT_LOG_PUTS(alt_log_msg_alt_main)

    /* Call the C entry point. It should never return. */
    call alt_main
     1ec:	003c49c0 	call	3c49c <alt_main>

000001f0 <alt_after_alt_main>:

    /* Wait in infinite loop in case alt_main does return. */
alt_after_alt_main:
    br alt_after_alt_main
     1f0:	003fff06 	br	1f0 <alt_after_alt_main>

000001f4 <bmp_extract_header>:
#include "bmp_extract.h"

int8_t g_file_buffer[67108864];	// Create and Enormous buffer to avoid dynamic memory allocation
Bmp_header g_input_file_header;

int bmp_extract_header(Bmp_data *pic_data) {
     1f4:	defffb04 	addi	sp,sp,-20
     1f8:	dfc00415 	stw	ra,16(sp)
     1fc:	df000315 	stw	fp,12(sp)
     200:	dc000215 	stw	r16,8(sp)
     204:	df000204 	addi	fp,sp,8
     208:	e13fff15 	stw	r4,-4(fp)
	int i;

	if (pic_data->buffer[0] == 'B' && pic_data->buffer[1] == 'M') {
     20c:	e0bfff17 	ldw	r2,-4(fp)
     210:	10800117 	ldw	r2,4(r2)
     214:	10800003 	ldbu	r2,0(r2)
     218:	10803fcc 	andi	r2,r2,255
     21c:	1080201c 	xori	r2,r2,128
     220:	10bfe004 	addi	r2,r2,-128
     224:	10801098 	cmpnei	r2,r2,66
     228:	10003c1e 	bne	r2,zero,31c <bmp_extract_header+0x128>
     22c:	e0bfff17 	ldw	r2,-4(fp)
     230:	10800117 	ldw	r2,4(r2)
     234:	10800044 	addi	r2,r2,1
     238:	10800003 	ldbu	r2,0(r2)
     23c:	10803fcc 	andi	r2,r2,255
     240:	1080201c 	xori	r2,r2,128
     244:	10bfe004 	addi	r2,r2,-128
     248:	10801358 	cmpnei	r2,r2,77
     24c:	1000331e 	bne	r2,zero,31c <bmp_extract_header+0x128>
		for (i = 0; i < 52; i++) {
     250:	e03ffe15 	stw	zero,-8(fp)
     254:	00000e06 	br	290 <bmp_extract_header+0x9c>
			pic_data->header->BMPRawData[i] = pic_data->buffer[i + 2];
     258:	e0bfff17 	ldw	r2,-4(fp)
     25c:	11000017 	ldw	r4,0(r2)
     260:	e0bfff17 	ldw	r2,-4(fp)
     264:	10c00117 	ldw	r3,4(r2)
     268:	e0bffe17 	ldw	r2,-8(fp)
     26c:	10800084 	addi	r2,r2,2
     270:	1885883a 	add	r2,r3,r2
     274:	10c00003 	ldbu	r3,0(r2)
     278:	e0bffe17 	ldw	r2,-8(fp)
     27c:	2085883a 	add	r2,r4,r2
     280:	10c00005 	stb	r3,0(r2)

int bmp_extract_header(Bmp_data *pic_data) {
	int i;

	if (pic_data->buffer[0] == 'B' && pic_data->buffer[1] == 'M') {
		for (i = 0; i < 52; i++) {
     284:	e0bffe17 	ldw	r2,-8(fp)
     288:	10800044 	addi	r2,r2,1
     28c:	e0bffe15 	stw	r2,-8(fp)
     290:	e0bffe17 	ldw	r2,-8(fp)
     294:	10800d10 	cmplti	r2,r2,52
     298:	103fef1e 	bne	r2,zero,258 <bmp_extract_header+0x64>
			pic_data->header->BMPRawData[i] = pic_data->buffer[i + 2];
		}

		// Calculate the effective size of the data field
		pic_data->header->BMPDataSize = pic_data->header->BMPHeight * pic_data->header->BMPWidth
     29c:	e0bfff17 	ldw	r2,-4(fp)
     2a0:	14000017 	ldw	r16,0(r2)
     2a4:	e0bfff17 	ldw	r2,-4(fp)
     2a8:	10800017 	ldw	r2,0(r2)
     2ac:	10c00517 	ldw	r3,20(r2)
     2b0:	e0bfff17 	ldw	r2,-4(fp)
     2b4:	10800017 	ldw	r2,0(r2)
     2b8:	10800417 	ldw	r2,16(r2)
     2bc:	1809883a 	mov	r4,r3
     2c0:	100b883a 	mov	r5,r2
     2c4:	002c1fc0 	call	2c1fc <__mulsi3>
     2c8:	1007883a 	mov	r3,r2
				* (pic_data->header->BMPBitsPerPixel / 8);
     2cc:	e0bfff17 	ldw	r2,-4(fp)
     2d0:	10800017 	ldw	r2,0(r2)
     2d4:	1080068b 	ldhu	r2,26(r2)
     2d8:	10bfffcc 	andi	r2,r2,65535
     2dc:	1004d0fa 	srli	r2,r2,3
     2e0:	10bfffcc 	andi	r2,r2,65535
     2e4:	1809883a 	mov	r4,r3
     2e8:	100b883a 	mov	r5,r2
     2ec:	002c1fc0 	call	2c1fc <__mulsi3>
		for (i = 0; i < 52; i++) {
			pic_data->header->BMPRawData[i] = pic_data->buffer[i + 2];
		}

		// Calculate the effective size of the data field
		pic_data->header->BMPDataSize = pic_data->header->BMPHeight * pic_data->header->BMPWidth
     2f0:	80800815 	stw	r2,32(r16)
				* (pic_data->header->BMPBitsPerPixel / 8);

		pic_data->bitmap = &pic_data->buffer[pic_data->header->BMPDataOffset];
     2f4:	e0bfff17 	ldw	r2,-4(fp)
     2f8:	10c00117 	ldw	r3,4(r2)
     2fc:	e0bfff17 	ldw	r2,-4(fp)
     300:	10800017 	ldw	r2,0(r2)
     304:	10800217 	ldw	r2,8(r2)
     308:	1887883a 	add	r3,r3,r2
     30c:	e0bfff17 	ldw	r2,-4(fp)
     310:	10c00215 	stw	r3,8(r2)
		return 1;
     314:	00800044 	movi	r2,1
     318:	00000106 	br	320 <bmp_extract_header+0x12c>
	}
	return 0;
     31c:	0005883a 	mov	r2,zero
}
     320:	e037883a 	mov	sp,fp
     324:	dfc00217 	ldw	ra,8(sp)
     328:	df000117 	ldw	fp,4(sp)
     32c:	dc000017 	ldw	r16,0(sp)
     330:	dec00304 	addi	sp,sp,12
     334:	f800283a 	ret

00000338 <bmp_rearrange_comps>:

void bmp_rearrange_comps(Bmp_data *pic_data) {
     338:	defff704 	addi	sp,sp,-36
     33c:	dfc00815 	stw	ra,32(sp)
     340:	df000715 	stw	fp,28(sp)
     344:	dc000615 	stw	r16,24(sp)
     348:	df000604 	addi	fp,sp,24
     34c:	e13fff15 	stw	r4,-4(fp)
	int row, column;
	int8_t r, g, b, *row_ptr, *dest;

	// <*dest> starts from the top left of the image and moves downwards.
	// <*row_ptr> starts from the bottom left of the image and moves upwards.
	dest = pic_data->bitmap;
     350:	e0bfff17 	ldw	r2,-4(fp)
     354:	10800217 	ldw	r2,8(r2)
     358:	e0bffc15 	stw	r2,-16(fp)

	for (row = pic_data->header->BMPHeight - 1; row >= pic_data->header->BMPHeight / 2; row--) {
     35c:	e0bfff17 	ldw	r2,-4(fp)
     360:	10800017 	ldw	r2,0(r2)
     364:	10800517 	ldw	r2,20(r2)
     368:	10bfffc4 	addi	r2,r2,-1
     36c:	e0bffa15 	stw	r2,-24(fp)
     370:	00005606 	br	4cc <bmp_rearrange_comps+0x194>
		// We loop until <*dest> and <*row_ptr> meet in the middle of the image.

		row_ptr = &(pic_data->bitmap[row * pic_data->header->BMPWidth * 3]);
     374:	e0bfff17 	ldw	r2,-4(fp)
     378:	14000217 	ldw	r16,8(r2)
     37c:	e0bfff17 	ldw	r2,-4(fp)
     380:	10800017 	ldw	r2,0(r2)
     384:	10c00417 	ldw	r3,16(r2)
     388:	e0bffa17 	ldw	r2,-24(fp)
     38c:	1809883a 	mov	r4,r3
     390:	100b883a 	mov	r5,r2
     394:	002c1fc0 	call	2c1fc <__mulsi3>
     398:	1007883a 	mov	r3,r2
     39c:	1805883a 	mov	r2,r3
     3a0:	1085883a 	add	r2,r2,r2
     3a4:	10c5883a 	add	r2,r2,r3
     3a8:	8085883a 	add	r2,r16,r2
     3ac:	e0bffd15 	stw	r2,-12(fp)
		for (column = 0; column < pic_data->header->BMPWidth * 3; column += 3) {
     3b0:	e03ffb15 	stw	zero,-20(fp)
     3b4:	00003a06 	br	4a0 <bmp_rearrange_comps+0x168>
			// Not only do we move data from <*dest> to <*row_ptr> and vice-versa,
			// we also need to reshuffle RGB components.
			r = dest[2];
     3b8:	e0bffc17 	ldw	r2,-16(fp)
     3bc:	10800083 	ldbu	r2,2(r2)
     3c0:	e0bffe05 	stb	r2,-8(fp)
			g = dest[1];
     3c4:	e0bffc17 	ldw	r2,-16(fp)
     3c8:	10800043 	ldbu	r2,1(r2)
     3cc:	e0bffe45 	stb	r2,-7(fp)
			b = dest[0];
     3d0:	e0bffc17 	ldw	r2,-16(fp)
     3d4:	10800003 	ldbu	r2,0(r2)
     3d8:	e0bffe85 	stb	r2,-6(fp)

			*dest++ = row_ptr[column + 2];
     3dc:	e0bffb17 	ldw	r2,-20(fp)
     3e0:	10800084 	addi	r2,r2,2
     3e4:	e0fffd17 	ldw	r3,-12(fp)
     3e8:	1885883a 	add	r2,r3,r2
     3ec:	10c00003 	ldbu	r3,0(r2)
     3f0:	e0bffc17 	ldw	r2,-16(fp)
     3f4:	10c00005 	stb	r3,0(r2)
     3f8:	e0bffc17 	ldw	r2,-16(fp)
     3fc:	10800044 	addi	r2,r2,1
     400:	e0bffc15 	stw	r2,-16(fp)
			*dest++ = row_ptr[column + 1];
     404:	e0bffb17 	ldw	r2,-20(fp)
     408:	10800044 	addi	r2,r2,1
     40c:	e0fffd17 	ldw	r3,-12(fp)
     410:	1885883a 	add	r2,r3,r2
     414:	10c00003 	ldbu	r3,0(r2)
     418:	e0bffc17 	ldw	r2,-16(fp)
     41c:	10c00005 	stb	r3,0(r2)
     420:	e0bffc17 	ldw	r2,-16(fp)
     424:	10800044 	addi	r2,r2,1
     428:	e0bffc15 	stw	r2,-16(fp)
			*dest++ = row_ptr[column];
     42c:	e0bffb17 	ldw	r2,-20(fp)
     430:	e0fffd17 	ldw	r3,-12(fp)
     434:	1885883a 	add	r2,r3,r2
     438:	10c00003 	ldbu	r3,0(r2)
     43c:	e0bffc17 	ldw	r2,-16(fp)
     440:	10c00005 	stb	r3,0(r2)
     444:	e0bffc17 	ldw	r2,-16(fp)
     448:	10800044 	addi	r2,r2,1
     44c:	e0bffc15 	stw	r2,-16(fp)

			row_ptr[column] = r;
     450:	e0bffb17 	ldw	r2,-20(fp)
     454:	e0fffd17 	ldw	r3,-12(fp)
     458:	1885883a 	add	r2,r3,r2
     45c:	e0fffe03 	ldbu	r3,-8(fp)
     460:	10c00005 	stb	r3,0(r2)
			row_ptr[column + 1] = g;
     464:	e0bffb17 	ldw	r2,-20(fp)
     468:	10800044 	addi	r2,r2,1
     46c:	e0fffd17 	ldw	r3,-12(fp)
     470:	1885883a 	add	r2,r3,r2
     474:	e0fffe43 	ldbu	r3,-7(fp)
     478:	10c00005 	stb	r3,0(r2)
			row_ptr[column + 2] = b;
     47c:	e0bffb17 	ldw	r2,-20(fp)
     480:	10800084 	addi	r2,r2,2
     484:	e0fffd17 	ldw	r3,-12(fp)
     488:	1885883a 	add	r2,r3,r2
     48c:	e0fffe83 	ldbu	r3,-6(fp)
     490:	10c00005 	stb	r3,0(r2)

	for (row = pic_data->header->BMPHeight - 1; row >= pic_data->header->BMPHeight / 2; row--) {
		// We loop until <*dest> and <*row_ptr> meet in the middle of the image.

		row_ptr = &(pic_data->bitmap[row * pic_data->header->BMPWidth * 3]);
		for (column = 0; column < pic_data->header->BMPWidth * 3; column += 3) {
     494:	e0bffb17 	ldw	r2,-20(fp)
     498:	108000c4 	addi	r2,r2,3
     49c:	e0bffb15 	stw	r2,-20(fp)
     4a0:	e13ffb17 	ldw	r4,-20(fp)
     4a4:	e0bfff17 	ldw	r2,-4(fp)
     4a8:	10800017 	ldw	r2,0(r2)
     4ac:	10c00417 	ldw	r3,16(r2)
     4b0:	1805883a 	mov	r2,r3
     4b4:	1085883a 	add	r2,r2,r2
     4b8:	10c5883a 	add	r2,r2,r3
     4bc:	20bfbe36 	bltu	r4,r2,3b8 <bmp_rearrange_comps+0x80>

	// <*dest> starts from the top left of the image and moves downwards.
	// <*row_ptr> starts from the bottom left of the image and moves upwards.
	dest = pic_data->bitmap;

	for (row = pic_data->header->BMPHeight - 1; row >= pic_data->header->BMPHeight / 2; row--) {
     4c0:	e0bffa17 	ldw	r2,-24(fp)
     4c4:	10bfffc4 	addi	r2,r2,-1
     4c8:	e0bffa15 	stw	r2,-24(fp)
     4cc:	e0fffa17 	ldw	r3,-24(fp)
     4d0:	e0bfff17 	ldw	r2,-4(fp)
     4d4:	10800017 	ldw	r2,0(r2)
     4d8:	10800517 	ldw	r2,20(r2)
     4dc:	1004d07a 	srli	r2,r2,1
     4e0:	18bfa42e 	bgeu	r3,r2,374 <bmp_rearrange_comps+0x3c>
			row_ptr[column] = r;
			row_ptr[column + 1] = g;
			row_ptr[column + 2] = b;
		}
	}
}
     4e4:	e037883a 	mov	sp,fp
     4e8:	dfc00217 	ldw	ra,8(sp)
     4ec:	df000117 	ldw	fp,4(sp)
     4f0:	dc000017 	ldw	r16,0(sp)
     4f4:	dec00304 	addi	sp,sp,12
     4f8:	f800283a 	ret

000004fc <bmp_extract>:

int bmp_extract(char *file_name, Bmp_data *pic_data) {
     4fc:	defff904 	addi	sp,sp,-28
     500:	dfc00615 	stw	ra,24(sp)
     504:	df000515 	stw	fp,20(sp)
     508:	df000504 	addi	fp,sp,20
     50c:	e13ffe15 	stw	r4,-8(fp)
     510:	e17fff15 	stw	r5,-4(fp)
	FILE *bmp_file = NULL;
     514:	e03ffb15 	stw	zero,-20(fp)
	int bmp_file_size, bytes_read;

	bmp_file = fopen(file_name, "rb");
     518:	e13ffe17 	ldw	r4,-8(fp)
     51c:	01400134 	movhi	r5,4
     520:	297b7004 	addi	r5,r5,-4672
     524:	002d16c0 	call	2d16c <fopen>
     528:	e0bffb15 	stw	r2,-20(fp)
	if(bmp_file == NULL) {
     52c:	e0bffb17 	ldw	r2,-20(fp)
     530:	1000061e 	bne	r2,zero,54c <bmp_extract+0x50>
		printf("Error opening the file %s\n", file_name);
     534:	01000134 	movhi	r4,4
     538:	213b7104 	addi	r4,r4,-4668
     53c:	e17ffe17 	ldw	r5,-8(fp)
     540:	002ee480 	call	2ee48 <printf>
		return 1;
     544:	00800044 	movi	r2,1
     548:	00004b06 	br	678 <bmp_extract+0x17c>
	}

	// Get the size of the file
	fseek(bmp_file, 0, SEEK_END);
     54c:	e13ffb17 	ldw	r4,-20(fp)
     550:	000b883a 	mov	r5,zero
     554:	01800084 	movi	r6,2
     558:	002dcd00 	call	2dcd0 <fseek>
	bmp_file_size = ftell(bmp_file);
     55c:	e13ffb17 	ldw	r4,-20(fp)
     560:	002de6c0 	call	2de6c <ftell>
     564:	e0bffc15 	stw	r2,-16(fp)
	rewind(bmp_file);
     568:	e13ffb17 	ldw	r4,-20(fp)
     56c:	002f15c0 	call	2f15c <rewind>

	pic_data->buffer = g_file_buffer;		// (int8_t *)malloc(bmp_file_size);
     570:	e0bfff17 	ldw	r2,-4(fp)
     574:	00c00134 	movhi	r3,4
     578:	18d34704 	addi	r3,r3,19740
     57c:	10c00115 	stw	r3,4(r2)

	// Read the whole file into the buffer
	bytes_read = fread((void *)pic_data->buffer, sizeof(int8_t), bmp_file_size, bmp_file);
     580:	e0bfff17 	ldw	r2,-4(fp)
     584:	10c00117 	ldw	r3,4(r2)
     588:	e0bffc17 	ldw	r2,-16(fp)
     58c:	1809883a 	mov	r4,r3
     590:	01400044 	movi	r5,1
     594:	100d883a 	mov	r6,r2
     598:	e1fffb17 	ldw	r7,-20(fp)
     59c:	002d4100 	call	2d410 <fread>
     5a0:	e0bffd15 	stw	r2,-12(fp)

	fclose(bmp_file);
     5a4:	e13ffb17 	ldw	r4,-20(fp)
     5a8:	002cb240 	call	2cb24 <fclose>

	if(bytes_read != bmp_file_size)
     5ac:	e0fffd17 	ldw	r3,-12(fp)
     5b0:	e0bffc17 	ldw	r2,-16(fp)
     5b4:	18800526 	beq	r3,r2,5cc <bmp_extract+0xd0>
	{
		printf("Error occurred while reading the file\n\n");
     5b8:	01000134 	movhi	r4,4
     5bc:	213b7804 	addi	r4,r4,-4640
     5c0:	002ef080 	call	2ef08 <puts>
		return 2;
     5c4:	00800084 	movi	r2,2
     5c8:	00002b06 	br	678 <bmp_extract+0x17c>
	}

	pic_data->header = &g_input_file_header;	// (Bmp_header *)malloc(sizeof(Bmp_header));
     5cc:	e0bfff17 	ldw	r2,-4(fp)
     5d0:	00c00134 	movhi	r3,4
     5d4:	18d33a04 	addi	r3,r3,19688
     5d8:	10c00015 	stw	r3,0(r2)

	bmp_extract_header(pic_data);
     5dc:	e13fff17 	ldw	r4,-4(fp)
     5e0:	00001f40 	call	1f4 <bmp_extract_header>
	bmp_rearrange_comps(pic_data);
     5e4:	e13fff17 	ldw	r4,-4(fp)
     5e8:	00003380 	call	338 <bmp_rearrange_comps>

	printf("Size of the file: %d\n", (int)pic_data->header->BMPFileSize);
     5ec:	e0bfff17 	ldw	r2,-4(fp)
     5f0:	10800017 	ldw	r2,0(r2)
     5f4:	10800017 	ldw	r2,0(r2)
     5f8:	01000134 	movhi	r4,4
     5fc:	213b8204 	addi	r4,r4,-4600
     600:	100b883a 	mov	r5,r2
     604:	002ee480 	call	2ee48 <printf>
	printf("Size of the height: %d\n", (int)pic_data->header->BMPHeight);
     608:	e0bfff17 	ldw	r2,-4(fp)
     60c:	10800017 	ldw	r2,0(r2)
     610:	10800517 	ldw	r2,20(r2)
     614:	01000134 	movhi	r4,4
     618:	213b8804 	addi	r4,r4,-4576
     61c:	100b883a 	mov	r5,r2
     620:	002ee480 	call	2ee48 <printf>
	printf("Size of the width: %d\n", (int)pic_data->header->BMPWidth);
     624:	e0bfff17 	ldw	r2,-4(fp)
     628:	10800017 	ldw	r2,0(r2)
     62c:	10800417 	ldw	r2,16(r2)
     630:	01000134 	movhi	r4,4
     634:	213b8e04 	addi	r4,r4,-4552
     638:	100b883a 	mov	r5,r2
     63c:	002ee480 	call	2ee48 <printf>
	printf("Size of the offset: %d\n", (int)pic_data->header->BMPDataOffset);
     640:	e0bfff17 	ldw	r2,-4(fp)
     644:	10800017 	ldw	r2,0(r2)
     648:	10800217 	ldw	r2,8(r2)
     64c:	01000134 	movhi	r4,4
     650:	213b9404 	addi	r4,r4,-4528
     654:	100b883a 	mov	r5,r2
     658:	002ee480 	call	2ee48 <printf>
	printf("Data pointer: 0x%08x\n\n", (unsigned int)pic_data->bitmap);
     65c:	e0bfff17 	ldw	r2,-4(fp)
     660:	10800217 	ldw	r2,8(r2)
     664:	01000134 	movhi	r4,4
     668:	213b9a04 	addi	r4,r4,-4504
     66c:	100b883a 	mov	r5,r2
     670:	002ee480 	call	2ee48 <printf>

	return 0;
     674:	0005883a 	mov	r2,zero
}
     678:	e037883a 	mov	sp,fp
     67c:	dfc00117 	ldw	ra,4(sp)
     680:	df000017 	ldw	fp,0(sp)
     684:	dec00204 	addi	sp,sp,8
     688:	f800283a 	ret

0000068c <jpeg_encode>:

#include "jpeg_encoding.h"


int jpeg_encode(char *destFilename, int8_t *rawData, int image_height, int image_width, int quality)
{
     68c:	deff6f04 	addi	sp,sp,-580
     690:	dfc09015 	stw	ra,576(sp)
     694:	df008f15 	stw	fp,572(sp)
     698:	df008f04 	addi	fp,sp,572
     69c:	e13ffc15 	stw	r4,-16(fp)
     6a0:	e17ffd15 	stw	r5,-12(fp)
     6a4:	e1bffe15 	stw	r6,-8(fp)
     6a8:	e1ffff15 	stw	r7,-4(fp)
	/* We have to set up the error handler first, in case the initialization
	* step fails.  (Unlikely, but it could happen if you are out of memory.)
	* This routine fills in the contents of struct jerr, and returns jerr's
	* address which we place into the link field in cinfo.
	*/
	cinfo.err = jpeg_std_error(&jerr);
     6ac:	e0bfda04 	addi	r2,fp,-152
     6b0:	1009883a 	mov	r4,r2
     6b4:	0011bc80 	call	11bc8 <jpeg_std_error>
     6b8:	e0bf7315 	stw	r2,-564(fp)
	/* Now we can initialize the JPEG compression object. */
	jpeg_create_compress(&cinfo);
     6bc:	e0bf7304 	addi	r2,fp,-564
     6c0:	1009883a 	mov	r4,r2
     6c4:	01401404 	movi	r5,80
     6c8:	01806704 	movi	r6,412
     6cc:	00009a00 	call	9a0 <jpeg_CreateCompress>
	/* Here we use the library-supplied code to send compressed data to a
	* stdio stream.  You can also write your own code to do something else.
	* VERY IMPORTANT: use "b" option to fopen() if you are on a machine that
	* requires it in order to write binary files.
	*/
	if ((outfile = fopen(destFilename, "w")) == NULL) {
     6d0:	e13ffc17 	ldw	r4,-16(fp)
     6d4:	01400134 	movhi	r5,4
     6d8:	297ba004 	addi	r5,r5,-4480
     6dc:	002d16c0 	call	2d16c <fopen>
     6e0:	e0bf7115 	stw	r2,-572(fp)
     6e4:	e0bf7117 	ldw	r2,-572(fp)
     6e8:	10000b1e 	bne	r2,zero,718 <jpeg_encode+0x8c>
		fprintf(stderr, "can't open %s\n", destFilename);
     6ec:	00800134 	movhi	r2,4
     6f0:	108c3e04 	addi	r2,r2,12536
     6f4:	10800017 	ldw	r2,0(r2)
     6f8:	10800317 	ldw	r2,12(r2)
     6fc:	1009883a 	mov	r4,r2
     700:	01400134 	movhi	r5,4
     704:	297ba104 	addi	r5,r5,-4476
     708:	e1bffc17 	ldw	r6,-16(fp)
     70c:	002d1b00 	call	2d1b0 <fprintf>
		exit(1);
     710:	01000044 	movi	r4,1
     714:	002c9b00 	call	2c9b0 <exit>
	}
	jpeg_stdio_dest(&cinfo, outfile);
     718:	e0bf7304 	addi	r2,fp,-564
     71c:	1009883a 	mov	r4,r2
     720:	e17f7117 	ldw	r5,-572(fp)
     724:	00115f00 	call	115f0 <jpeg_stdio_dest>
	/* Step 3: set parameters for compression */

	/* First we supply a description of the input image.
	* Four fields of the cinfo struct must be filled in:
	*/
	cinfo.image_width = image_width; 	/* image width and height, in pixels */
     728:	e0bfff17 	ldw	r2,-4(fp)
     72c:	e0bf7a15 	stw	r2,-536(fp)
	cinfo.image_height = image_height;
     730:	e0bffe17 	ldw	r2,-8(fp)
     734:	e0bf7b15 	stw	r2,-532(fp)
	cinfo.input_components = 3;		/* # of color components per pixel */
     738:	008000c4 	movi	r2,3
     73c:	e0bf7c15 	stw	r2,-528(fp)
	cinfo.in_color_space = JCS_RGB; 	/* colorspace of input image */
     740:	00800084 	movi	r2,2
     744:	e0bf7d15 	stw	r2,-524(fp)
	/* Now use the library's routine to set default compression parameters.
	* (You must set at least cinfo.in_color_space before calling this,
	* since the defaults depend on the source color space.)
	*/
	jpeg_set_defaults(&cinfo);
     748:	e0bf7304 	addi	r2,fp,-564
     74c:	1009883a 	mov	r4,r2
     750:	000d5880 	call	d588 <jpeg_set_defaults>
	/* Now you can set any non-default parameters you wish to.
	* Here we just illustrate the use of quality (quantization table) scaling:
	*/
	jpeg_set_quality(&cinfo, quality, TRUE /* limit to baseline-JPEG values */);
     754:	e0bf7304 	addi	r2,fp,-564
     758:	1009883a 	mov	r4,r2
     75c:	e1400217 	ldw	r5,8(fp)
     760:	01800044 	movi	r6,1
     764:	000d3680 	call	d368 <jpeg_set_quality>
	/* Step 4: Start compressor */

	/* TRUE ensures that we will write a complete interchange-JPEG file.
	* Pass TRUE unless you are very sure of what you're doing.
	*/
	jpeg_start_compress(&cinfo, TRUE);
     768:	e0bf7304 	addi	r2,fp,-564
     76c:	1009883a 	mov	r4,r2
     770:	01400044 	movi	r5,1
     774:	00012300 	call	1230 <jpeg_start_compress>
	/* Here we use the library's state variable cinfo.next_scanline as the
	* loop counter, so that we don't have to keep track ourselves.
	* To keep things simple, we pass one scanline per call; you can pass
	* more if you wish, though.
	*/
	row_stride = image_width * 3;	/* JSAMPLEs per row in image_buffer */
     778:	e0ffff17 	ldw	r3,-4(fp)
     77c:	1805883a 	mov	r2,r3
     780:	1085883a 	add	r2,r2,r2
     784:	10c5883a 	add	r2,r2,r3
     788:	e0bf7215 	stw	r2,-568(fp)

	while (cinfo.next_scanline < cinfo.image_height) {
     78c:	00000e06 	br	7c8 <jpeg_encode+0x13c>
		/* jpeg_write_scanlines expects an array of pointers to scanlines.
		* Here the array is only one element long, but you could pass
		* more than one scanline at a time if that's more convenient.
		*/
		row_pointer[0] = (JSAMPLE *)&rawData[cinfo.next_scanline * row_stride];
     790:	e0ffaf17 	ldw	r3,-324(fp)
     794:	e0bf7217 	ldw	r2,-568(fp)
     798:	1809883a 	mov	r4,r3
     79c:	100b883a 	mov	r5,r2
     7a0:	002c1fc0 	call	2c1fc <__mulsi3>
     7a4:	e0fffd17 	ldw	r3,-12(fp)
     7a8:	1885883a 	add	r2,r3,r2
     7ac:	e0bffb15 	stw	r2,-20(fp)
		(void) jpeg_write_scanlines(&cinfo, row_pointer, 1);
     7b0:	e0ff7304 	addi	r3,fp,-564
     7b4:	e0bffb04 	addi	r2,fp,-20
     7b8:	1809883a 	mov	r4,r3
     7bc:	100b883a 	mov	r5,r2
     7c0:	01800044 	movi	r6,1
     7c4:	000132c0 	call	132c <jpeg_write_scanlines>
	* To keep things simple, we pass one scanline per call; you can pass
	* more if you wish, though.
	*/
	row_stride = image_width * 3;	/* JSAMPLEs per row in image_buffer */

	while (cinfo.next_scanline < cinfo.image_height) {
     7c8:	e0ffaf17 	ldw	r3,-324(fp)
     7cc:	e0bf7b17 	ldw	r2,-532(fp)
     7d0:	18bfef36 	bltu	r3,r2,790 <jpeg_encode+0x104>
		(void) jpeg_write_scanlines(&cinfo, row_pointer, 1);
	}

	/* Step 6: Finish compression */

	jpeg_finish_compress(&cinfo);
     7d4:	e0bf7304 	addi	r2,fp,-564
     7d8:	1009883a 	mov	r4,r2
     7dc:	0000d440 	call	d44 <jpeg_finish_compress>
	/* After finish_compress, we can close the output file. */
	fclose(outfile);
     7e0:	e13f7117 	ldw	r4,-572(fp)
     7e4:	002cb240 	call	2cb24 <fclose>

	/* Step 7: release JPEG compression object */

	/* This is an important step since it will release a good deal of memory. */
	jpeg_destroy_compress(&cinfo);
     7e8:	e0bf7304 	addi	r2,fp,-564
     7ec:	1009883a 	mov	r4,r2
     7f0:	0000be00 	call	be0 <jpeg_destroy_compress>

	/* And we're done! */
	return 0;
     7f4:	0005883a 	mov	r2,zero
}
     7f8:	e037883a 	mov	sp,fp
     7fc:	dfc00117 	ldw	ra,4(sp)
     800:	df000017 	ldw	fp,0(sp)
     804:	dec00204 	addi	sp,sp,8
     808:	f800283a 	ret

0000080c <keymatch>:
* minchars is length of minimum legal abbreviation.
*/

GLOBAL(boolean)
	keymatch (char * arg, const char * keyword, int minchars)
{
     80c:	defff804 	addi	sp,sp,-32
     810:	df000715 	stw	fp,28(sp)
     814:	dc800615 	stw	r18,24(sp)
     818:	dc400515 	stw	r17,20(sp)
     81c:	dc000415 	stw	r16,16(sp)
     820:	df000404 	addi	fp,sp,16
     824:	e13ffd15 	stw	r4,-12(fp)
     828:	e17ffe15 	stw	r5,-8(fp)
     82c:	e1bfff15 	stw	r6,-4(fp)
	register int ca, ck;
	register int nmatched = 0;
     830:	0023883a 	mov	r17,zero

	while ((ca = *arg++) != '\0') {
     834:	00002906 	br	8dc <keymatch+0xd0>
		if ((ck = *keyword++) == '\0')
     838:	e0bffe17 	ldw	r2,-8(fp)
     83c:	10800003 	ldbu	r2,0(r2)
     840:	14803fcc 	andi	r18,r2,255
     844:	9480201c 	xori	r18,r18,128
     848:	94bfe004 	addi	r18,r18,-128
     84c:	9005003a 	cmpeq	r2,r18,zero
     850:	e0fffe17 	ldw	r3,-8(fp)
     854:	18c00044 	addi	r3,r3,1
     858:	e0fffe15 	stw	r3,-8(fp)
     85c:	10803fcc 	andi	r2,r2,255
     860:	10000226 	beq	r2,zero,86c <keymatch+0x60>
			return FALSE;		/* arg longer than keyword, no good */
     864:	0005883a 	mov	r2,zero
     868:	00002c06 	br	91c <keymatch+0x110>
		if (isupper(ca))		/* force arg to lcase (assume ck is already) */
     86c:	00800134 	movhi	r2,4
     870:	108c3c04 	addi	r2,r2,12528
     874:	10c00017 	ldw	r3,0(r2)
     878:	8005883a 	mov	r2,r16
     87c:	1885883a 	add	r2,r3,r2
     880:	10800003 	ldbu	r2,0(r2)
     884:	10803fcc 	andi	r2,r2,255
     888:	1080004c 	andi	r2,r2,1
     88c:	10000f26 	beq	r2,zero,8cc <keymatch+0xc0>
			ca = tolower(ca);
     890:	e43ffc15 	stw	r16,-16(fp)
     894:	00800134 	movhi	r2,4
     898:	108c3c04 	addi	r2,r2,12528
     89c:	10c00017 	ldw	r3,0(r2)
     8a0:	e0bffc17 	ldw	r2,-16(fp)
     8a4:	1885883a 	add	r2,r3,r2
     8a8:	10800003 	ldbu	r2,0(r2)
     8ac:	10803fcc 	andi	r2,r2,255
     8b0:	1080004c 	andi	r2,r2,1
     8b4:	10000326 	beq	r2,zero,8c4 <keymatch+0xb8>
     8b8:	e0bffc17 	ldw	r2,-16(fp)
     8bc:	10800804 	addi	r2,r2,32
     8c0:	00000106 	br	8c8 <keymatch+0xbc>
     8c4:	e0bffc17 	ldw	r2,-16(fp)
     8c8:	1021883a 	mov	r16,r2
		if (ca != ck)
     8cc:	84800226 	beq	r16,r18,8d8 <keymatch+0xcc>
			return FALSE;		/* no good */
     8d0:	0005883a 	mov	r2,zero
     8d4:	00001106 	br	91c <keymatch+0x110>
		nmatched++;			/* count matched characters */
     8d8:	8c400044 	addi	r17,r17,1
	keymatch (char * arg, const char * keyword, int minchars)
{
	register int ca, ck;
	register int nmatched = 0;

	while ((ca = *arg++) != '\0') {
     8dc:	e0bffd17 	ldw	r2,-12(fp)
     8e0:	10800003 	ldbu	r2,0(r2)
     8e4:	14003fcc 	andi	r16,r2,255
     8e8:	8400201c 	xori	r16,r16,128
     8ec:	843fe004 	addi	r16,r16,-128
     8f0:	8004c03a 	cmpne	r2,r16,zero
     8f4:	e0fffd17 	ldw	r3,-12(fp)
     8f8:	18c00044 	addi	r3,r3,1
     8fc:	e0fffd15 	stw	r3,-12(fp)
     900:	10803fcc 	andi	r2,r2,255
     904:	103fcc1e 	bne	r2,zero,838 <keymatch+0x2c>
		if (ca != ck)
			return FALSE;		/* no good */
		nmatched++;			/* count matched characters */
	}
	/* reached end of argument; fail if it's too short for unique abbrev */
	if (nmatched < minchars)
     908:	e0bfff17 	ldw	r2,-4(fp)
     90c:	8880020e 	bge	r17,r2,918 <keymatch+0x10c>
		return FALSE;
     910:	0005883a 	mov	r2,zero
     914:	00000106 	br	91c <keymatch+0x110>
	return TRUE;			/* A-OK */
     918:	00800044 	movi	r2,1
}
     91c:	e037883a 	mov	sp,fp
     920:	df000317 	ldw	fp,12(sp)
     924:	dc800217 	ldw	r18,8(sp)
     928:	dc400117 	ldw	r17,4(sp)
     92c:	dc000017 	ldw	r16,0(sp)
     930:	dec00404 	addi	sp,sp,16
     934:	f800283a 	ret

00000938 <read_stdin>:
* Non-Unix systems often require some hacking to get out of text mode.
*/

GLOBAL(FILE *)
	read_stdin (void)
{
     938:	defffe04 	addi	sp,sp,-8
     93c:	df000115 	stw	fp,4(sp)
     940:	df000104 	addi	fp,sp,4
	FILE * input_file = stdin;
     944:	00800134 	movhi	r2,4
     948:	108c3e04 	addi	r2,r2,12536
     94c:	10800017 	ldw	r2,0(r2)
     950:	10800117 	ldw	r2,4(r2)
     954:	e0bfff15 	stw	r2,-4(fp)
	if ((input_file = fdopen(fileno(stdin), READ_BINARY)) == NULL) {
		fprintf(stderr, "Cannot reopen stdin\n");
		exit(EXIT_FAILURE);
	}
#endif
	return input_file;
     958:	e0bfff17 	ldw	r2,-4(fp)
}
     95c:	e037883a 	mov	sp,fp
     960:	df000017 	ldw	fp,0(sp)
     964:	dec00104 	addi	sp,sp,4
     968:	f800283a 	ret

0000096c <write_stdout>:


GLOBAL(FILE *)
	write_stdout (void)
{
     96c:	defffe04 	addi	sp,sp,-8
     970:	df000115 	stw	fp,4(sp)
     974:	df000104 	addi	fp,sp,4
	FILE * output_file = stdout;
     978:	00800134 	movhi	r2,4
     97c:	108c3e04 	addi	r2,r2,12536
     980:	10800017 	ldw	r2,0(r2)
     984:	10800217 	ldw	r2,8(r2)
     988:	e0bfff15 	stw	r2,-4(fp)
	if ((output_file = fdopen(fileno(stdout), WRITE_BINARY)) == NULL) {
		fprintf(stderr, "Cannot reopen stdout\n");
		exit(EXIT_FAILURE);
	}
#endif
	return output_file;
     98c:	e0bfff17 	ldw	r2,-4(fp)
}
     990:	e037883a 	mov	sp,fp
     994:	df000017 	ldw	fp,0(sp)
     998:	dec00104 	addi	sp,sp,4
     99c:	f800283a 	ret

000009a0 <jpeg_CreateCompress>:
* The error manager must already be set up (in case memory manager fails).
*/

GLOBAL(void)
	jpeg_CreateCompress (j_compress_ptr cinfo, int version, size_t structsize)
{
     9a0:	defff804 	addi	sp,sp,-32
     9a4:	dfc00715 	stw	ra,28(sp)
     9a8:	df000615 	stw	fp,24(sp)
     9ac:	df000604 	addi	fp,sp,24
     9b0:	e13ffd15 	stw	r4,-12(fp)
     9b4:	e17ffe15 	stw	r5,-8(fp)
     9b8:	e1bfff15 	stw	r6,-4(fp)
	int i;

	/* Guard against version mismatches between library and caller. */
	cinfo->mem = NULL;		/* so jpeg_destroy knows mem mgr not called */
     9bc:	e0bffd17 	ldw	r2,-12(fp)
     9c0:	10000115 	stw	zero,4(r2)
	if (version != JPEG_LIB_VERSION)
     9c4:	e0bffe17 	ldw	r2,-8(fp)
     9c8:	10801420 	cmpeqi	r2,r2,80
     9cc:	1000111e 	bne	r2,zero,a14 <jpeg_CreateCompress+0x74>
		ERREXIT2(cinfo, JERR_BAD_LIB_VERSION, JPEG_LIB_VERSION, version);
     9d0:	e0bffd17 	ldw	r2,-12(fp)
     9d4:	10800017 	ldw	r2,0(r2)
     9d8:	00c00344 	movi	r3,13
     9dc:	10c00515 	stw	r3,20(r2)
     9e0:	e0bffd17 	ldw	r2,-12(fp)
     9e4:	10800017 	ldw	r2,0(r2)
     9e8:	00c01404 	movi	r3,80
     9ec:	10c00615 	stw	r3,24(r2)
     9f0:	e0bffd17 	ldw	r2,-12(fp)
     9f4:	10800017 	ldw	r2,0(r2)
     9f8:	e0fffe17 	ldw	r3,-8(fp)
     9fc:	10c00715 	stw	r3,28(r2)
     a00:	e0bffd17 	ldw	r2,-12(fp)
     a04:	10800017 	ldw	r2,0(r2)
     a08:	10800017 	ldw	r2,0(r2)
     a0c:	e13ffd17 	ldw	r4,-12(fp)
     a10:	103ee83a 	callr	r2
	if (structsize != SIZEOF(struct jpeg_compress_struct))
     a14:	e0bfff17 	ldw	r2,-4(fp)
     a18:	10806720 	cmpeqi	r2,r2,412
     a1c:	1000111e 	bne	r2,zero,a64 <jpeg_CreateCompress+0xc4>
		ERREXIT2(cinfo, JERR_BAD_STRUCT_SIZE, 
     a20:	e0bffd17 	ldw	r2,-12(fp)
     a24:	10800017 	ldw	r2,0(r2)
     a28:	00c00584 	movi	r3,22
     a2c:	10c00515 	stw	r3,20(r2)
     a30:	e0bffd17 	ldw	r2,-12(fp)
     a34:	10800017 	ldw	r2,0(r2)
     a38:	00c06704 	movi	r3,412
     a3c:	10c00615 	stw	r3,24(r2)
     a40:	e0bffd17 	ldw	r2,-12(fp)
     a44:	10800017 	ldw	r2,0(r2)
     a48:	e0ffff17 	ldw	r3,-4(fp)
     a4c:	10c00715 	stw	r3,28(r2)
     a50:	e0bffd17 	ldw	r2,-12(fp)
     a54:	10800017 	ldw	r2,0(r2)
     a58:	10800017 	ldw	r2,0(r2)
     a5c:	e13ffd17 	ldw	r4,-12(fp)
     a60:	103ee83a 	callr	r2
	* client_data, so we have to save and restore those fields.
	* Note: if application hasn't set client_data, tools like Purify may
	* complain here.
	*/
	{
		struct jpeg_error_mgr * err = cinfo->err;
     a64:	e0bffd17 	ldw	r2,-12(fp)
     a68:	10800017 	ldw	r2,0(r2)
     a6c:	e0bffb15 	stw	r2,-20(fp)
		void * client_data = cinfo->client_data; /* ignore Purify complaint here */
     a70:	e0bffd17 	ldw	r2,-12(fp)
     a74:	10800317 	ldw	r2,12(r2)
     a78:	e0bffc15 	stw	r2,-16(fp)
		MEMZERO(cinfo, SIZEOF(struct jpeg_compress_struct));
     a7c:	e13ffd17 	ldw	r4,-12(fp)
     a80:	000b883a 	mov	r5,zero
     a84:	01806704 	movi	r6,412
     a88:	002ecd40 	call	2ecd4 <memset>
		cinfo->err = err;
     a8c:	e0bffd17 	ldw	r2,-12(fp)
     a90:	e0fffb17 	ldw	r3,-20(fp)
     a94:	10c00015 	stw	r3,0(r2)
		cinfo->client_data = client_data;
     a98:	e0bffd17 	ldw	r2,-12(fp)
     a9c:	e0fffc17 	ldw	r3,-16(fp)
     aa0:	10c00315 	stw	r3,12(r2)
	}
	cinfo->is_decompressor = FALSE;
     aa4:	e0bffd17 	ldw	r2,-12(fp)
     aa8:	10000405 	stb	zero,16(r2)

	/* Initialize a memory manager instance for this object */
	jinit_memory_mgr((j_common_ptr) cinfo);
     aac:	e13ffd17 	ldw	r4,-12(fp)
     ab0:	0026d740 	call	26d74 <jinit_memory_mgr>

	/* Zero out pointers to permanent structures. */
	cinfo->progress = NULL;
     ab4:	e0bffd17 	ldw	r2,-12(fp)
     ab8:	10000215 	stw	zero,8(r2)
	cinfo->dest = NULL;
     abc:	e0bffd17 	ldw	r2,-12(fp)
     ac0:	10000615 	stw	zero,24(r2)

	cinfo->comp_info = NULL;
     ac4:	e0bffd17 	ldw	r2,-12(fp)
     ac8:	10001415 	stw	zero,80(r2)

	for (i = 0; i < NUM_QUANT_TBLS; i++) {
     acc:	e03ffa15 	stw	zero,-24(fp)
     ad0:	00001206 	br	b1c <jpeg_CreateCompress+0x17c>
		cinfo->quant_tbl_ptrs[i] = NULL;
     ad4:	e0fffd17 	ldw	r3,-12(fp)
     ad8:	e0bffa17 	ldw	r2,-24(fp)
     adc:	10800544 	addi	r2,r2,21
     ae0:	1085883a 	add	r2,r2,r2
     ae4:	1085883a 	add	r2,r2,r2
     ae8:	1885883a 	add	r2,r3,r2
     aec:	10000015 	stw	zero,0(r2)
		cinfo->q_scale_factor[i] = 100;
     af0:	e0fffd17 	ldw	r3,-12(fp)
     af4:	e0bffa17 	ldw	r2,-24(fp)
     af8:	10800644 	addi	r2,r2,25
     afc:	1085883a 	add	r2,r2,r2
     b00:	1085883a 	add	r2,r2,r2
     b04:	1885883a 	add	r2,r3,r2
     b08:	00c01904 	movi	r3,100
     b0c:	10c00015 	stw	r3,0(r2)
	cinfo->progress = NULL;
	cinfo->dest = NULL;

	cinfo->comp_info = NULL;

	for (i = 0; i < NUM_QUANT_TBLS; i++) {
     b10:	e0bffa17 	ldw	r2,-24(fp)
     b14:	10800044 	addi	r2,r2,1
     b18:	e0bffa15 	stw	r2,-24(fp)
     b1c:	e0bffa17 	ldw	r2,-24(fp)
     b20:	10800110 	cmplti	r2,r2,4
     b24:	103feb1e 	bne	r2,zero,ad4 <jpeg_CreateCompress+0x134>
		cinfo->quant_tbl_ptrs[i] = NULL;
		cinfo->q_scale_factor[i] = 100;
	}

	for (i = 0; i < NUM_HUFF_TBLS; i++) {
     b28:	e03ffa15 	stw	zero,-24(fp)
     b2c:	00001106 	br	b74 <jpeg_CreateCompress+0x1d4>
		cinfo->dc_huff_tbl_ptrs[i] = NULL;
     b30:	e0fffd17 	ldw	r3,-12(fp)
     b34:	e0bffa17 	ldw	r2,-24(fp)
     b38:	10800744 	addi	r2,r2,29
     b3c:	1085883a 	add	r2,r2,r2
     b40:	1085883a 	add	r2,r2,r2
     b44:	1885883a 	add	r2,r3,r2
     b48:	10000015 	stw	zero,0(r2)
		cinfo->ac_huff_tbl_ptrs[i] = NULL;
     b4c:	e0fffd17 	ldw	r3,-12(fp)
     b50:	e0bffa17 	ldw	r2,-24(fp)
     b54:	10800844 	addi	r2,r2,33
     b58:	1085883a 	add	r2,r2,r2
     b5c:	1085883a 	add	r2,r2,r2
     b60:	1885883a 	add	r2,r3,r2
     b64:	10000015 	stw	zero,0(r2)
	for (i = 0; i < NUM_QUANT_TBLS; i++) {
		cinfo->quant_tbl_ptrs[i] = NULL;
		cinfo->q_scale_factor[i] = 100;
	}

	for (i = 0; i < NUM_HUFF_TBLS; i++) {
     b68:	e0bffa17 	ldw	r2,-24(fp)
     b6c:	10800044 	addi	r2,r2,1
     b70:	e0bffa15 	stw	r2,-24(fp)
     b74:	e0bffa17 	ldw	r2,-24(fp)
     b78:	10800110 	cmplti	r2,r2,4
     b7c:	103fec1e 	bne	r2,zero,b30 <jpeg_CreateCompress+0x190>
		cinfo->dc_huff_tbl_ptrs[i] = NULL;
		cinfo->ac_huff_tbl_ptrs[i] = NULL;
	}

	/* Must do it here for emit_dqt in case jpeg_write_tables is used */
	cinfo->block_size = DCTSIZE;
     b80:	e0bffd17 	ldw	r2,-12(fp)
     b84:	00c00204 	movi	r3,8
     b88:	10c05915 	stw	r3,356(r2)
	cinfo->natural_order = jpeg_natural_order;
     b8c:	e0bffd17 	ldw	r2,-12(fp)
     b90:	00c00134 	movhi	r3,4
     b94:	18c2bc04 	addi	r3,r3,2800
     b98:	10c05a15 	stw	r3,360(r2)
	cinfo->lim_Se = DCTSIZE2-1;
     b9c:	e0bffd17 	ldw	r2,-12(fp)
     ba0:	00c00fc4 	movi	r3,63
     ba4:	10c05b15 	stw	r3,364(r2)

	cinfo->script_space = NULL;
     ba8:	e0bffd17 	ldw	r2,-12(fp)
     bac:	10006515 	stw	zero,404(r2)

	cinfo->input_gamma = 1.0;	/* in case application forgets */
     bb0:	e0bffd17 	ldw	r2,-12(fp)
     bb4:	10000b15 	stw	zero,44(r2)
     bb8:	00cffc34 	movhi	r3,16368
     bbc:	10c00c15 	stw	r3,48(r2)

	/* OK, I'm ready */
	cinfo->global_state = CSTATE_START;
     bc0:	e0bffd17 	ldw	r2,-12(fp)
     bc4:	00c01904 	movi	r3,100
     bc8:	10c00515 	stw	r3,20(r2)
}
     bcc:	e037883a 	mov	sp,fp
     bd0:	dfc00117 	ldw	ra,4(sp)
     bd4:	df000017 	ldw	fp,0(sp)
     bd8:	dec00204 	addi	sp,sp,8
     bdc:	f800283a 	ret

00000be0 <jpeg_destroy_compress>:
* Destruction of a JPEG compression object
*/

GLOBAL(void)
	jpeg_destroy_compress (j_compress_ptr cinfo)
{
     be0:	defffd04 	addi	sp,sp,-12
     be4:	dfc00215 	stw	ra,8(sp)
     be8:	df000115 	stw	fp,4(sp)
     bec:	df000104 	addi	fp,sp,4
     bf0:	e13fff15 	stw	r4,-4(fp)
	jpeg_destroy((j_common_ptr) cinfo); /* use common routine */
     bf4:	e13fff17 	ldw	r4,-4(fp)
     bf8:	000cf280 	call	cf28 <jpeg_destroy>
}
     bfc:	e037883a 	mov	sp,fp
     c00:	dfc00117 	ldw	ra,4(sp)
     c04:	df000017 	ldw	fp,0(sp)
     c08:	dec00204 	addi	sp,sp,8
     c0c:	f800283a 	ret

00000c10 <jpeg_abort_compress>:
* but don't destroy the object itself.
*/

GLOBAL(void)
	jpeg_abort_compress (j_compress_ptr cinfo)
{
     c10:	defffd04 	addi	sp,sp,-12
     c14:	dfc00215 	stw	ra,8(sp)
     c18:	df000115 	stw	fp,4(sp)
     c1c:	df000104 	addi	fp,sp,4
     c20:	e13fff15 	stw	r4,-4(fp)
	jpeg_abort((j_common_ptr) cinfo); /* use common routine */
     c24:	e13fff17 	ldw	r4,-4(fp)
     c28:	000ce800 	call	ce80 <jpeg_abort>
}
     c2c:	e037883a 	mov	sp,fp
     c30:	dfc00117 	ldw	ra,4(sp)
     c34:	df000017 	ldw	fp,0(sp)
     c38:	dec00204 	addi	sp,sp,8
     c3c:	f800283a 	ret

00000c40 <jpeg_suppress_tables>:
* jcparam.o would be linked whether the application used it or not.
*/

GLOBAL(void)
	jpeg_suppress_tables (j_compress_ptr cinfo, boolean suppress)
{
     c40:	defffa04 	addi	sp,sp,-24
     c44:	df000515 	stw	fp,20(sp)
     c48:	df000504 	addi	fp,sp,20
     c4c:	e13ffe15 	stw	r4,-8(fp)
     c50:	2805883a 	mov	r2,r5
     c54:	e0bfff05 	stb	r2,-4(fp)
	int i;
	JQUANT_TBL * qtbl;
	JHUFF_TBL * htbl;

	for (i = 0; i < NUM_QUANT_TBLS; i++) {
     c58:	e03ffb15 	stw	zero,-20(fp)
     c5c:	00001006 	br	ca0 <jpeg_suppress_tables+0x60>
		if ((qtbl = cinfo->quant_tbl_ptrs[i]) != NULL)
     c60:	e0fffe17 	ldw	r3,-8(fp)
     c64:	e0bffb17 	ldw	r2,-20(fp)
     c68:	10800544 	addi	r2,r2,21
     c6c:	1085883a 	add	r2,r2,r2
     c70:	1085883a 	add	r2,r2,r2
     c74:	1885883a 	add	r2,r3,r2
     c78:	10800017 	ldw	r2,0(r2)
     c7c:	e0bffc15 	stw	r2,-16(fp)
     c80:	e0bffc17 	ldw	r2,-16(fp)
     c84:	10000326 	beq	r2,zero,c94 <jpeg_suppress_tables+0x54>
			qtbl->sent_table = suppress;
     c88:	e0bffc17 	ldw	r2,-16(fp)
     c8c:	e0ffff03 	ldbu	r3,-4(fp)
     c90:	10c02005 	stb	r3,128(r2)
{
	int i;
	JQUANT_TBL * qtbl;
	JHUFF_TBL * htbl;

	for (i = 0; i < NUM_QUANT_TBLS; i++) {
     c94:	e0bffb17 	ldw	r2,-20(fp)
     c98:	10800044 	addi	r2,r2,1
     c9c:	e0bffb15 	stw	r2,-20(fp)
     ca0:	e0bffb17 	ldw	r2,-20(fp)
     ca4:	10800110 	cmplti	r2,r2,4
     ca8:	103fed1e 	bne	r2,zero,c60 <jpeg_suppress_tables+0x20>
		if ((qtbl = cinfo->quant_tbl_ptrs[i]) != NULL)
			qtbl->sent_table = suppress;
	}

	for (i = 0; i < NUM_HUFF_TBLS; i++) {
     cac:	e03ffb15 	stw	zero,-20(fp)
     cb0:	00001d06 	br	d28 <jpeg_suppress_tables+0xe8>
		if ((htbl = cinfo->dc_huff_tbl_ptrs[i]) != NULL)
     cb4:	e0fffe17 	ldw	r3,-8(fp)
     cb8:	e0bffb17 	ldw	r2,-20(fp)
     cbc:	10800744 	addi	r2,r2,29
     cc0:	1085883a 	add	r2,r2,r2
     cc4:	1085883a 	add	r2,r2,r2
     cc8:	1885883a 	add	r2,r3,r2
     ccc:	10800017 	ldw	r2,0(r2)
     cd0:	e0bffd15 	stw	r2,-12(fp)
     cd4:	e0bffd17 	ldw	r2,-12(fp)
     cd8:	10000326 	beq	r2,zero,ce8 <jpeg_suppress_tables+0xa8>
			htbl->sent_table = suppress;
     cdc:	e0bffd17 	ldw	r2,-12(fp)
     ce0:	e0ffff03 	ldbu	r3,-4(fp)
     ce4:	10c04445 	stb	r3,273(r2)
		if ((htbl = cinfo->ac_huff_tbl_ptrs[i]) != NULL)
     ce8:	e0fffe17 	ldw	r3,-8(fp)
     cec:	e0bffb17 	ldw	r2,-20(fp)
     cf0:	10800844 	addi	r2,r2,33
     cf4:	1085883a 	add	r2,r2,r2
     cf8:	1085883a 	add	r2,r2,r2
     cfc:	1885883a 	add	r2,r3,r2
     d00:	10800017 	ldw	r2,0(r2)
     d04:	e0bffd15 	stw	r2,-12(fp)
     d08:	e0bffd17 	ldw	r2,-12(fp)
     d0c:	10000326 	beq	r2,zero,d1c <jpeg_suppress_tables+0xdc>
			htbl->sent_table = suppress;
     d10:	e0bffd17 	ldw	r2,-12(fp)
     d14:	e0ffff03 	ldbu	r3,-4(fp)
     d18:	10c04445 	stb	r3,273(r2)
	for (i = 0; i < NUM_QUANT_TBLS; i++) {
		if ((qtbl = cinfo->quant_tbl_ptrs[i]) != NULL)
			qtbl->sent_table = suppress;
	}

	for (i = 0; i < NUM_HUFF_TBLS; i++) {
     d1c:	e0bffb17 	ldw	r2,-20(fp)
     d20:	10800044 	addi	r2,r2,1
     d24:	e0bffb15 	stw	r2,-20(fp)
     d28:	e0bffb17 	ldw	r2,-20(fp)
     d2c:	10800110 	cmplti	r2,r2,4
     d30:	103fe01e 	bne	r2,zero,cb4 <jpeg_suppress_tables+0x74>
		if ((htbl = cinfo->dc_huff_tbl_ptrs[i]) != NULL)
			htbl->sent_table = suppress;
		if ((htbl = cinfo->ac_huff_tbl_ptrs[i]) != NULL)
			htbl->sent_table = suppress;
	}
}
     d34:	e037883a 	mov	sp,fp
     d38:	df000017 	ldw	fp,0(sp)
     d3c:	dec00104 	addi	sp,sp,4
     d40:	f800283a 	ret

00000d44 <jpeg_finish_compress>:
* work including most of the actual output.
*/

GLOBAL(void)
	jpeg_finish_compress (j_compress_ptr cinfo)
{
     d44:	defffc04 	addi	sp,sp,-16
     d48:	dfc00315 	stw	ra,12(sp)
     d4c:	df000215 	stw	fp,8(sp)
     d50:	df000204 	addi	fp,sp,8
     d54:	e13fff15 	stw	r4,-4(fp)
	JDIMENSION iMCU_row;

	if (cinfo->global_state == CSTATE_SCANNING ||
     d58:	e0bfff17 	ldw	r2,-4(fp)
     d5c:	10800517 	ldw	r2,20(r2)
     d60:	10801960 	cmpeqi	r2,r2,101
     d64:	1000041e 	bne	r2,zero,d78 <jpeg_finish_compress+0x34>
		cinfo->global_state == CSTATE_RAW_OK) {
     d68:	e0bfff17 	ldw	r2,-4(fp)
     d6c:	10800517 	ldw	r2,20(r2)
GLOBAL(void)
	jpeg_finish_compress (j_compress_ptr cinfo)
{
	JDIMENSION iMCU_row;

	if (cinfo->global_state == CSTATE_SCANNING ||
     d70:	10801998 	cmpnei	r2,r2,102
     d74:	1000141e 	bne	r2,zero,dc8 <jpeg_finish_compress+0x84>
		cinfo->global_state == CSTATE_RAW_OK) {
			/* Terminate first pass */
			if (cinfo->next_scanline < cinfo->image_height)
     d78:	e0bfff17 	ldw	r2,-4(fp)
     d7c:	10c03c17 	ldw	r3,240(r2)
     d80:	e0bfff17 	ldw	r2,-4(fp)
     d84:	10800817 	ldw	r2,32(r2)
     d88:	1880092e 	bgeu	r3,r2,db0 <jpeg_finish_compress+0x6c>
				ERREXIT(cinfo, JERR_TOO_LITTLE_DATA);
     d8c:	e0bfff17 	ldw	r2,-4(fp)
     d90:	10800017 	ldw	r2,0(r2)
     d94:	00c01144 	movi	r3,69
     d98:	10c00515 	stw	r3,20(r2)
     d9c:	e0bfff17 	ldw	r2,-4(fp)
     da0:	10800017 	ldw	r2,0(r2)
     da4:	10800017 	ldw	r2,0(r2)
     da8:	e13fff17 	ldw	r4,-4(fp)
     dac:	103ee83a 	callr	r2
			(*cinfo->master->finish_pass) (cinfo);
     db0:	e0bfff17 	ldw	r2,-4(fp)
     db4:	10805c17 	ldw	r2,368(r2)
     db8:	10800217 	ldw	r2,8(r2)
     dbc:	e13fff17 	ldw	r4,-4(fp)
     dc0:	103ee83a 	callr	r2
	} else if (cinfo->global_state != CSTATE_WRCOEFS)
		ERREXIT1(cinfo, JERR_BAD_STATE, cinfo->global_state);
	/* Perform any remaining passes */
	while (! cinfo->master->is_last_pass) {
     dc4:	00004906 	br	eec <jpeg_finish_compress+0x1a8>
		cinfo->global_state == CSTATE_RAW_OK) {
			/* Terminate first pass */
			if (cinfo->next_scanline < cinfo->image_height)
				ERREXIT(cinfo, JERR_TOO_LITTLE_DATA);
			(*cinfo->master->finish_pass) (cinfo);
	} else if (cinfo->global_state != CSTATE_WRCOEFS)
     dc8:	e0bfff17 	ldw	r2,-4(fp)
     dcc:	10800517 	ldw	r2,20(r2)
     dd0:	108019e0 	cmpeqi	r2,r2,103
     dd4:	1000451e 	bne	r2,zero,eec <jpeg_finish_compress+0x1a8>
		ERREXIT1(cinfo, JERR_BAD_STATE, cinfo->global_state);
     dd8:	e0bfff17 	ldw	r2,-4(fp)
     ddc:	10800017 	ldw	r2,0(r2)
     de0:	00c00544 	movi	r3,21
     de4:	10c00515 	stw	r3,20(r2)
     de8:	e0bfff17 	ldw	r2,-4(fp)
     dec:	10800017 	ldw	r2,0(r2)
     df0:	e0ffff17 	ldw	r3,-4(fp)
     df4:	18c00517 	ldw	r3,20(r3)
     df8:	10c00615 	stw	r3,24(r2)
     dfc:	e0bfff17 	ldw	r2,-4(fp)
     e00:	10800017 	ldw	r2,0(r2)
     e04:	10800017 	ldw	r2,0(r2)
     e08:	e13fff17 	ldw	r4,-4(fp)
     e0c:	103ee83a 	callr	r2
	/* Perform any remaining passes */
	while (! cinfo->master->is_last_pass) {
     e10:	00003606 	br	eec <jpeg_finish_compress+0x1a8>
		(*cinfo->master->prepare_for_pass) (cinfo);
     e14:	e0bfff17 	ldw	r2,-4(fp)
     e18:	10805c17 	ldw	r2,368(r2)
     e1c:	10800017 	ldw	r2,0(r2)
     e20:	e13fff17 	ldw	r4,-4(fp)
     e24:	103ee83a 	callr	r2
		for (iMCU_row = 0; iMCU_row < cinfo->total_iMCU_rows; iMCU_row++) {
     e28:	e03ffe15 	stw	zero,-8(fp)
     e2c:	00002506 	br	ec4 <jpeg_finish_compress+0x180>
			if (cinfo->progress != NULL) {
     e30:	e0bfff17 	ldw	r2,-4(fp)
     e34:	10800217 	ldw	r2,8(r2)
     e38:	10000e26 	beq	r2,zero,e74 <jpeg_finish_compress+0x130>
				cinfo->progress->pass_counter = (long) iMCU_row;
     e3c:	e0bfff17 	ldw	r2,-4(fp)
     e40:	10800217 	ldw	r2,8(r2)
     e44:	e0fffe17 	ldw	r3,-8(fp)
     e48:	10c00115 	stw	r3,4(r2)
				cinfo->progress->pass_limit = (long) cinfo->total_iMCU_rows;
     e4c:	e0bfff17 	ldw	r2,-4(fp)
     e50:	10800217 	ldw	r2,8(r2)
     e54:	e0ffff17 	ldw	r3,-4(fp)
     e58:	18c04217 	ldw	r3,264(r3)
     e5c:	10c00215 	stw	r3,8(r2)
				(*cinfo->progress->progress_monitor) ((j_common_ptr) cinfo);
     e60:	e0bfff17 	ldw	r2,-4(fp)
     e64:	10800217 	ldw	r2,8(r2)
     e68:	10800017 	ldw	r2,0(r2)
     e6c:	e13fff17 	ldw	r4,-4(fp)
     e70:	103ee83a 	callr	r2
			}
			/* We bypass the main controller and invoke coef controller directly;
			* all work is being done from the coefficient buffer.
			*/
			if (! (*cinfo->coef->compress_data) (cinfo, (JSAMPIMAGE) NULL))
     e74:	e0bfff17 	ldw	r2,-4(fp)
     e78:	10805f17 	ldw	r2,380(r2)
     e7c:	10800117 	ldw	r2,4(r2)
     e80:	e13fff17 	ldw	r4,-4(fp)
     e84:	000b883a 	mov	r5,zero
     e88:	103ee83a 	callr	r2
     e8c:	10803fcc 	andi	r2,r2,255
     e90:	1000091e 	bne	r2,zero,eb8 <jpeg_finish_compress+0x174>
				ERREXIT(cinfo, JERR_CANT_SUSPEND);
     e94:	e0bfff17 	ldw	r2,-4(fp)
     e98:	10800017 	ldw	r2,0(r2)
     e9c:	00c00644 	movi	r3,25
     ea0:	10c00515 	stw	r3,20(r2)
     ea4:	e0bfff17 	ldw	r2,-4(fp)
     ea8:	10800017 	ldw	r2,0(r2)
     eac:	10800017 	ldw	r2,0(r2)
     eb0:	e13fff17 	ldw	r4,-4(fp)
     eb4:	103ee83a 	callr	r2
	} else if (cinfo->global_state != CSTATE_WRCOEFS)
		ERREXIT1(cinfo, JERR_BAD_STATE, cinfo->global_state);
	/* Perform any remaining passes */
	while (! cinfo->master->is_last_pass) {
		(*cinfo->master->prepare_for_pass) (cinfo);
		for (iMCU_row = 0; iMCU_row < cinfo->total_iMCU_rows; iMCU_row++) {
     eb8:	e0bffe17 	ldw	r2,-8(fp)
     ebc:	10800044 	addi	r2,r2,1
     ec0:	e0bffe15 	stw	r2,-8(fp)
     ec4:	e0bfff17 	ldw	r2,-4(fp)
     ec8:	10804217 	ldw	r2,264(r2)
     ecc:	e0fffe17 	ldw	r3,-8(fp)
     ed0:	18bfd736 	bltu	r3,r2,e30 <jpeg_finish_compress+0xec>
			* all work is being done from the coefficient buffer.
			*/
			if (! (*cinfo->coef->compress_data) (cinfo, (JSAMPIMAGE) NULL))
				ERREXIT(cinfo, JERR_CANT_SUSPEND);
		}
		(*cinfo->master->finish_pass) (cinfo);
     ed4:	e0bfff17 	ldw	r2,-4(fp)
     ed8:	10805c17 	ldw	r2,368(r2)
     edc:	10800217 	ldw	r2,8(r2)
     ee0:	e13fff17 	ldw	r4,-4(fp)
     ee4:	103ee83a 	callr	r2
     ee8:	00000106 	br	ef0 <jpeg_finish_compress+0x1ac>
				ERREXIT(cinfo, JERR_TOO_LITTLE_DATA);
			(*cinfo->master->finish_pass) (cinfo);
	} else if (cinfo->global_state != CSTATE_WRCOEFS)
		ERREXIT1(cinfo, JERR_BAD_STATE, cinfo->global_state);
	/* Perform any remaining passes */
	while (! cinfo->master->is_last_pass) {
     eec:	0001883a 	nop
     ef0:	e0bfff17 	ldw	r2,-4(fp)
     ef4:	10805c17 	ldw	r2,368(r2)
     ef8:	10800343 	ldbu	r2,13(r2)
     efc:	10803fcc 	andi	r2,r2,255
     f00:	103fc426 	beq	r2,zero,e14 <jpeg_finish_compress+0xd0>
				ERREXIT(cinfo, JERR_CANT_SUSPEND);
		}
		(*cinfo->master->finish_pass) (cinfo);
	}
	/* Write EOI, do final cleanup */
	(*cinfo->marker->write_file_trailer) (cinfo);
     f04:	e0bfff17 	ldw	r2,-4(fp)
     f08:	10806017 	ldw	r2,384(r2)
     f0c:	10800317 	ldw	r2,12(r2)
     f10:	e13fff17 	ldw	r4,-4(fp)
     f14:	103ee83a 	callr	r2
	(*cinfo->dest->term_destination) (cinfo);
     f18:	e0bfff17 	ldw	r2,-4(fp)
     f1c:	10800617 	ldw	r2,24(r2)
     f20:	10800417 	ldw	r2,16(r2)
     f24:	e13fff17 	ldw	r4,-4(fp)
     f28:	103ee83a 	callr	r2
	/* We can use jpeg_abort to release memory and reset global_state */
	jpeg_abort((j_common_ptr) cinfo);
     f2c:	e13fff17 	ldw	r4,-4(fp)
     f30:	000ce800 	call	ce80 <jpeg_abort>
}
     f34:	e037883a 	mov	sp,fp
     f38:	dfc00117 	ldw	ra,4(sp)
     f3c:	df000017 	ldw	fp,0(sp)
     f40:	dec00204 	addi	sp,sp,8
     f44:	f800283a 	ret

00000f48 <jpeg_write_marker>:
*/

GLOBAL(void)
	jpeg_write_marker (j_compress_ptr cinfo, int marker,
	const JOCTET *dataptr, unsigned int datalen)
{
     f48:	defff904 	addi	sp,sp,-28
     f4c:	dfc00615 	stw	ra,24(sp)
     f50:	df000515 	stw	fp,20(sp)
     f54:	df000504 	addi	fp,sp,20
     f58:	e13ffc15 	stw	r4,-16(fp)
     f5c:	e17ffd15 	stw	r5,-12(fp)
     f60:	e1bffe15 	stw	r6,-8(fp)
     f64:	e1ffff15 	stw	r7,-4(fp)
	JMETHOD(void, write_marker_byte, (j_compress_ptr info, int val));

	if (cinfo->next_scanline != 0 ||
     f68:	e0bffc17 	ldw	r2,-16(fp)
     f6c:	10803c17 	ldw	r2,240(r2)
     f70:	10000c1e 	bne	r2,zero,fa4 <jpeg_write_marker+0x5c>
		(cinfo->global_state != CSTATE_SCANNING &&
     f74:	e0bffc17 	ldw	r2,-16(fp)
     f78:	10800517 	ldw	r2,20(r2)
	jpeg_write_marker (j_compress_ptr cinfo, int marker,
	const JOCTET *dataptr, unsigned int datalen)
{
	JMETHOD(void, write_marker_byte, (j_compress_ptr info, int val));

	if (cinfo->next_scanline != 0 ||
     f7c:	10801960 	cmpeqi	r2,r2,101
     f80:	1000161e 	bne	r2,zero,fdc <jpeg_write_marker+0x94>
		(cinfo->global_state != CSTATE_SCANNING &&
		cinfo->global_state != CSTATE_RAW_OK &&
     f84:	e0bffc17 	ldw	r2,-16(fp)
     f88:	10800517 	ldw	r2,20(r2)
	const JOCTET *dataptr, unsigned int datalen)
{
	JMETHOD(void, write_marker_byte, (j_compress_ptr info, int val));

	if (cinfo->next_scanline != 0 ||
		(cinfo->global_state != CSTATE_SCANNING &&
     f8c:	108019a0 	cmpeqi	r2,r2,102
     f90:	1000121e 	bne	r2,zero,fdc <jpeg_write_marker+0x94>
		cinfo->global_state != CSTATE_RAW_OK &&
		cinfo->global_state != CSTATE_WRCOEFS))
     f94:	e0bffc17 	ldw	r2,-16(fp)
     f98:	10800517 	ldw	r2,20(r2)
{
	JMETHOD(void, write_marker_byte, (j_compress_ptr info, int val));

	if (cinfo->next_scanline != 0 ||
		(cinfo->global_state != CSTATE_SCANNING &&
		cinfo->global_state != CSTATE_RAW_OK &&
     f9c:	108019e0 	cmpeqi	r2,r2,103
     fa0:	10000e1e 	bne	r2,zero,fdc <jpeg_write_marker+0x94>
		cinfo->global_state != CSTATE_WRCOEFS))
		ERREXIT1(cinfo, JERR_BAD_STATE, cinfo->global_state);
     fa4:	e0bffc17 	ldw	r2,-16(fp)
     fa8:	10800017 	ldw	r2,0(r2)
     fac:	00c00544 	movi	r3,21
     fb0:	10c00515 	stw	r3,20(r2)
     fb4:	e0bffc17 	ldw	r2,-16(fp)
     fb8:	10800017 	ldw	r2,0(r2)
     fbc:	e0fffc17 	ldw	r3,-16(fp)
     fc0:	18c00517 	ldw	r3,20(r3)
     fc4:	10c00615 	stw	r3,24(r2)
     fc8:	e0bffc17 	ldw	r2,-16(fp)
     fcc:	10800017 	ldw	r2,0(r2)
     fd0:	10800017 	ldw	r2,0(r2)
     fd4:	e13ffc17 	ldw	r4,-16(fp)
     fd8:	103ee83a 	callr	r2

	(*cinfo->marker->write_marker_header) (cinfo, marker, datalen);
     fdc:	e0bffc17 	ldw	r2,-16(fp)
     fe0:	10806017 	ldw	r2,384(r2)
     fe4:	10800517 	ldw	r2,20(r2)
     fe8:	e13ffc17 	ldw	r4,-16(fp)
     fec:	e17ffd17 	ldw	r5,-12(fp)
     ff0:	e1bfff17 	ldw	r6,-4(fp)
     ff4:	103ee83a 	callr	r2
	write_marker_byte = cinfo->marker->write_marker_byte;	/* copy for speed */
     ff8:	e0bffc17 	ldw	r2,-16(fp)
     ffc:	10806017 	ldw	r2,384(r2)
    1000:	10800617 	ldw	r2,24(r2)
    1004:	e0bffb15 	stw	r2,-20(fp)
	while (datalen--) {
    1008:	00000a06 	br	1034 <jpeg_write_marker+0xec>
		(*write_marker_byte) (cinfo, *dataptr);
    100c:	e0bffe17 	ldw	r2,-8(fp)
    1010:	10800003 	ldbu	r2,0(r2)
    1014:	10803fcc 	andi	r2,r2,255
    1018:	e0fffb17 	ldw	r3,-20(fp)
    101c:	e13ffc17 	ldw	r4,-16(fp)
    1020:	100b883a 	mov	r5,r2
    1024:	183ee83a 	callr	r3
		dataptr++;
    1028:	e0bffe17 	ldw	r2,-8(fp)
    102c:	10800044 	addi	r2,r2,1
    1030:	e0bffe15 	stw	r2,-8(fp)
		cinfo->global_state != CSTATE_WRCOEFS))
		ERREXIT1(cinfo, JERR_BAD_STATE, cinfo->global_state);

	(*cinfo->marker->write_marker_header) (cinfo, marker, datalen);
	write_marker_byte = cinfo->marker->write_marker_byte;	/* copy for speed */
	while (datalen--) {
    1034:	e0bfff17 	ldw	r2,-4(fp)
    1038:	1004c03a 	cmpne	r2,r2,zero
    103c:	e0ffff17 	ldw	r3,-4(fp)
    1040:	18ffffc4 	addi	r3,r3,-1
    1044:	e0ffff15 	stw	r3,-4(fp)
    1048:	10803fcc 	andi	r2,r2,255
    104c:	103fef1e 	bne	r2,zero,100c <jpeg_write_marker+0xc4>
		(*write_marker_byte) (cinfo, *dataptr);
		dataptr++;
	}
}
    1050:	e037883a 	mov	sp,fp
    1054:	dfc00117 	ldw	ra,4(sp)
    1058:	df000017 	ldw	fp,0(sp)
    105c:	dec00204 	addi	sp,sp,8
    1060:	f800283a 	ret

00001064 <jpeg_write_m_header>:

/* Same, but piecemeal. */

GLOBAL(void)
	jpeg_write_m_header (j_compress_ptr cinfo, int marker, unsigned int datalen)
{
    1064:	defffb04 	addi	sp,sp,-20
    1068:	dfc00415 	stw	ra,16(sp)
    106c:	df000315 	stw	fp,12(sp)
    1070:	df000304 	addi	fp,sp,12
    1074:	e13ffd15 	stw	r4,-12(fp)
    1078:	e17ffe15 	stw	r5,-8(fp)
    107c:	e1bfff15 	stw	r6,-4(fp)
	if (cinfo->next_scanline != 0 ||
    1080:	e0bffd17 	ldw	r2,-12(fp)
    1084:	10803c17 	ldw	r2,240(r2)
    1088:	10000c1e 	bne	r2,zero,10bc <jpeg_write_m_header+0x58>
		(cinfo->global_state != CSTATE_SCANNING &&
    108c:	e0bffd17 	ldw	r2,-12(fp)
    1090:	10800517 	ldw	r2,20(r2)
/* Same, but piecemeal. */

GLOBAL(void)
	jpeg_write_m_header (j_compress_ptr cinfo, int marker, unsigned int datalen)
{
	if (cinfo->next_scanline != 0 ||
    1094:	10801960 	cmpeqi	r2,r2,101
    1098:	1000161e 	bne	r2,zero,10f4 <jpeg_write_m_header+0x90>
		(cinfo->global_state != CSTATE_SCANNING &&
		cinfo->global_state != CSTATE_RAW_OK &&
    109c:	e0bffd17 	ldw	r2,-12(fp)
    10a0:	10800517 	ldw	r2,20(r2)

GLOBAL(void)
	jpeg_write_m_header (j_compress_ptr cinfo, int marker, unsigned int datalen)
{
	if (cinfo->next_scanline != 0 ||
		(cinfo->global_state != CSTATE_SCANNING &&
    10a4:	108019a0 	cmpeqi	r2,r2,102
    10a8:	1000121e 	bne	r2,zero,10f4 <jpeg_write_m_header+0x90>
		cinfo->global_state != CSTATE_RAW_OK &&
		cinfo->global_state != CSTATE_WRCOEFS))
    10ac:	e0bffd17 	ldw	r2,-12(fp)
    10b0:	10800517 	ldw	r2,20(r2)
GLOBAL(void)
	jpeg_write_m_header (j_compress_ptr cinfo, int marker, unsigned int datalen)
{
	if (cinfo->next_scanline != 0 ||
		(cinfo->global_state != CSTATE_SCANNING &&
		cinfo->global_state != CSTATE_RAW_OK &&
    10b4:	108019e0 	cmpeqi	r2,r2,103
    10b8:	10000e1e 	bne	r2,zero,10f4 <jpeg_write_m_header+0x90>
		cinfo->global_state != CSTATE_WRCOEFS))
		ERREXIT1(cinfo, JERR_BAD_STATE, cinfo->global_state);
    10bc:	e0bffd17 	ldw	r2,-12(fp)
    10c0:	10800017 	ldw	r2,0(r2)
    10c4:	00c00544 	movi	r3,21
    10c8:	10c00515 	stw	r3,20(r2)
    10cc:	e0bffd17 	ldw	r2,-12(fp)
    10d0:	10800017 	ldw	r2,0(r2)
    10d4:	e0fffd17 	ldw	r3,-12(fp)
    10d8:	18c00517 	ldw	r3,20(r3)
    10dc:	10c00615 	stw	r3,24(r2)
    10e0:	e0bffd17 	ldw	r2,-12(fp)
    10e4:	10800017 	ldw	r2,0(r2)
    10e8:	10800017 	ldw	r2,0(r2)
    10ec:	e13ffd17 	ldw	r4,-12(fp)
    10f0:	103ee83a 	callr	r2

	(*cinfo->marker->write_marker_header) (cinfo, marker, datalen);
    10f4:	e0bffd17 	ldw	r2,-12(fp)
    10f8:	10806017 	ldw	r2,384(r2)
    10fc:	10800517 	ldw	r2,20(r2)
    1100:	e13ffd17 	ldw	r4,-12(fp)
    1104:	e17ffe17 	ldw	r5,-8(fp)
    1108:	e1bfff17 	ldw	r6,-4(fp)
    110c:	103ee83a 	callr	r2
}
    1110:	e037883a 	mov	sp,fp
    1114:	dfc00117 	ldw	ra,4(sp)
    1118:	df000017 	ldw	fp,0(sp)
    111c:	dec00204 	addi	sp,sp,8
    1120:	f800283a 	ret

00001124 <jpeg_write_m_byte>:

GLOBAL(void)
	jpeg_write_m_byte (j_compress_ptr cinfo, int val)
{
    1124:	defffc04 	addi	sp,sp,-16
    1128:	dfc00315 	stw	ra,12(sp)
    112c:	df000215 	stw	fp,8(sp)
    1130:	df000204 	addi	fp,sp,8
    1134:	e13ffe15 	stw	r4,-8(fp)
    1138:	e17fff15 	stw	r5,-4(fp)
	(*cinfo->marker->write_marker_byte) (cinfo, val);
    113c:	e0bffe17 	ldw	r2,-8(fp)
    1140:	10806017 	ldw	r2,384(r2)
    1144:	10800617 	ldw	r2,24(r2)
    1148:	e13ffe17 	ldw	r4,-8(fp)
    114c:	e17fff17 	ldw	r5,-4(fp)
    1150:	103ee83a 	callr	r2
}
    1154:	e037883a 	mov	sp,fp
    1158:	dfc00117 	ldw	ra,4(sp)
    115c:	df000017 	ldw	fp,0(sp)
    1160:	dec00204 	addi	sp,sp,8
    1164:	f800283a 	ret

00001168 <jpeg_write_tables>:
* will not re-emit the tables unless it is passed write_all_tables=TRUE.
*/

GLOBAL(void)
	jpeg_write_tables (j_compress_ptr cinfo)
{
    1168:	defffd04 	addi	sp,sp,-12
    116c:	dfc00215 	stw	ra,8(sp)
    1170:	df000115 	stw	fp,4(sp)
    1174:	df000104 	addi	fp,sp,4
    1178:	e13fff15 	stw	r4,-4(fp)
	if (cinfo->global_state != CSTATE_START)
    117c:	e0bfff17 	ldw	r2,-4(fp)
    1180:	10800517 	ldw	r2,20(r2)
    1184:	10801920 	cmpeqi	r2,r2,100
    1188:	10000e1e 	bne	r2,zero,11c4 <jpeg_write_tables+0x5c>
		ERREXIT1(cinfo, JERR_BAD_STATE, cinfo->global_state);
    118c:	e0bfff17 	ldw	r2,-4(fp)
    1190:	10800017 	ldw	r2,0(r2)
    1194:	00c00544 	movi	r3,21
    1198:	10c00515 	stw	r3,20(r2)
    119c:	e0bfff17 	ldw	r2,-4(fp)
    11a0:	10800017 	ldw	r2,0(r2)
    11a4:	e0ffff17 	ldw	r3,-4(fp)
    11a8:	18c00517 	ldw	r3,20(r3)
    11ac:	10c00615 	stw	r3,24(r2)
    11b0:	e0bfff17 	ldw	r2,-4(fp)
    11b4:	10800017 	ldw	r2,0(r2)
    11b8:	10800017 	ldw	r2,0(r2)
    11bc:	e13fff17 	ldw	r4,-4(fp)
    11c0:	103ee83a 	callr	r2

	/* (Re)initialize error mgr and destination modules */
	(*cinfo->err->reset_error_mgr) ((j_common_ptr) cinfo);
    11c4:	e0bfff17 	ldw	r2,-4(fp)
    11c8:	10800017 	ldw	r2,0(r2)
    11cc:	10800417 	ldw	r2,16(r2)
    11d0:	e13fff17 	ldw	r4,-4(fp)
    11d4:	103ee83a 	callr	r2
	(*cinfo->dest->init_destination) (cinfo);
    11d8:	e0bfff17 	ldw	r2,-4(fp)
    11dc:	10800617 	ldw	r2,24(r2)
    11e0:	10800217 	ldw	r2,8(r2)
    11e4:	e13fff17 	ldw	r4,-4(fp)
    11e8:	103ee83a 	callr	r2
	/* Initialize the marker writer ... bit of a crock to do it here. */
	jinit_marker_writer(cinfo);
    11ec:	e13fff17 	ldw	r4,-4(fp)
    11f0:	000b0480 	call	b048 <jinit_marker_writer>
	/* Write them tables! */
	(*cinfo->marker->write_tables_only) (cinfo);
    11f4:	e0bfff17 	ldw	r2,-4(fp)
    11f8:	10806017 	ldw	r2,384(r2)
    11fc:	10800417 	ldw	r2,16(r2)
    1200:	e13fff17 	ldw	r4,-4(fp)
    1204:	103ee83a 	callr	r2
	/* And clean up. */
	(*cinfo->dest->term_destination) (cinfo);
    1208:	e0bfff17 	ldw	r2,-4(fp)
    120c:	10800617 	ldw	r2,24(r2)
    1210:	10800417 	ldw	r2,16(r2)
    1214:	e13fff17 	ldw	r4,-4(fp)
    1218:	103ee83a 	callr	r2
	* compression cycle or otherwise resetting the JPEG object.  However, that
	* seems less bad than unexpectedly freeing memory in the normal case.
	* An app that prefers the old behavior can call jpeg_abort for itself after
	* each call to jpeg_write_tables().
	*/
}
    121c:	e037883a 	mov	sp,fp
    1220:	dfc00117 	ldw	ra,4(sp)
    1224:	df000017 	ldw	fp,0(sp)
    1228:	dec00204 	addi	sp,sp,8
    122c:	f800283a 	ret

00001230 <jpeg_start_compress>:
* wrong thing.
*/

GLOBAL(void)
	jpeg_start_compress (j_compress_ptr cinfo, boolean write_all_tables)
{
    1230:	defffc04 	addi	sp,sp,-16
    1234:	dfc00315 	stw	ra,12(sp)
    1238:	df000215 	stw	fp,8(sp)
    123c:	df000204 	addi	fp,sp,8
    1240:	e13ffe15 	stw	r4,-8(fp)
    1244:	2805883a 	mov	r2,r5
    1248:	e0bfff05 	stb	r2,-4(fp)
	if (cinfo->global_state != CSTATE_START)
    124c:	e0bffe17 	ldw	r2,-8(fp)
    1250:	10800517 	ldw	r2,20(r2)
    1254:	10801920 	cmpeqi	r2,r2,100
    1258:	10000e1e 	bne	r2,zero,1294 <jpeg_start_compress+0x64>
		ERREXIT1(cinfo, JERR_BAD_STATE, cinfo->global_state);
    125c:	e0bffe17 	ldw	r2,-8(fp)
    1260:	10800017 	ldw	r2,0(r2)
    1264:	00c00544 	movi	r3,21
    1268:	10c00515 	stw	r3,20(r2)
    126c:	e0bffe17 	ldw	r2,-8(fp)
    1270:	10800017 	ldw	r2,0(r2)
    1274:	e0fffe17 	ldw	r3,-8(fp)
    1278:	18c00517 	ldw	r3,20(r3)
    127c:	10c00615 	stw	r3,24(r2)
    1280:	e0bffe17 	ldw	r2,-8(fp)
    1284:	10800017 	ldw	r2,0(r2)
    1288:	10800017 	ldw	r2,0(r2)
    128c:	e13ffe17 	ldw	r4,-8(fp)
    1290:	103ee83a 	callr	r2

	if (write_all_tables)
    1294:	e0bfff03 	ldbu	r2,-4(fp)
    1298:	10000326 	beq	r2,zero,12a8 <jpeg_start_compress+0x78>
		jpeg_suppress_tables(cinfo, FALSE);	/* mark all tables to be written */
    129c:	e13ffe17 	ldw	r4,-8(fp)
    12a0:	000b883a 	mov	r5,zero
    12a4:	0000c400 	call	c40 <jpeg_suppress_tables>

	/* (Re)initialize error mgr and destination modules */
	(*cinfo->err->reset_error_mgr) ((j_common_ptr) cinfo);
    12a8:	e0bffe17 	ldw	r2,-8(fp)
    12ac:	10800017 	ldw	r2,0(r2)
    12b0:	10800417 	ldw	r2,16(r2)
    12b4:	e13ffe17 	ldw	r4,-8(fp)
    12b8:	103ee83a 	callr	r2
	(*cinfo->dest->init_destination) (cinfo);
    12bc:	e0bffe17 	ldw	r2,-8(fp)
    12c0:	10800617 	ldw	r2,24(r2)
    12c4:	10800217 	ldw	r2,8(r2)
    12c8:	e13ffe17 	ldw	r4,-8(fp)
    12cc:	103ee83a 	callr	r2
	/* Perform master selection of active modules */
	jinit_compress_master(cinfo);
    12d0:	e13ffe17 	ldw	r4,-8(fp)
    12d4:	000984c0 	call	984c <jinit_compress_master>
	/* Set up for the first pass */
	(*cinfo->master->prepare_for_pass) (cinfo);
    12d8:	e0bffe17 	ldw	r2,-8(fp)
    12dc:	10805c17 	ldw	r2,368(r2)
    12e0:	10800017 	ldw	r2,0(r2)
    12e4:	e13ffe17 	ldw	r4,-8(fp)
    12e8:	103ee83a 	callr	r2
	/* Ready for application to drive first pass through jpeg_write_scanlines
	* or jpeg_write_raw_data.
	*/
	cinfo->next_scanline = 0;
    12ec:	e0bffe17 	ldw	r2,-8(fp)
    12f0:	10003c15 	stw	zero,240(r2)
	cinfo->global_state = (cinfo->raw_data_in ? CSTATE_RAW_OK : CSTATE_SCANNING);
    12f4:	e0bffe17 	ldw	r2,-8(fp)
    12f8:	10803303 	ldbu	r2,204(r2)
    12fc:	10803fcc 	andi	r2,r2,255
    1300:	10000226 	beq	r2,zero,130c <jpeg_start_compress+0xdc>
    1304:	00801984 	movi	r2,102
    1308:	00000106 	br	1310 <jpeg_start_compress+0xe0>
    130c:	00801944 	movi	r2,101
    1310:	e0fffe17 	ldw	r3,-8(fp)
    1314:	18800515 	stw	r2,20(r3)
}
    1318:	e037883a 	mov	sp,fp
    131c:	dfc00117 	ldw	ra,4(sp)
    1320:	df000017 	ldw	fp,0(sp)
    1324:	dec00204 	addi	sp,sp,8
    1328:	f800283a 	ret

0000132c <jpeg_write_scanlines>:
*/

GLOBAL(JDIMENSION)
	jpeg_write_scanlines (j_compress_ptr cinfo, JSAMPARRAY scanlines,
	JDIMENSION num_lines)
{
    132c:	defff904 	addi	sp,sp,-28
    1330:	dfc00615 	stw	ra,24(sp)
    1334:	df000515 	stw	fp,20(sp)
    1338:	df000504 	addi	fp,sp,20
    133c:	e13ffd15 	stw	r4,-12(fp)
    1340:	e17ffe15 	stw	r5,-8(fp)
    1344:	e1bfff15 	stw	r6,-4(fp)
	JDIMENSION row_ctr, rows_left;

	if (cinfo->global_state != CSTATE_SCANNING)
    1348:	e0bffd17 	ldw	r2,-12(fp)
    134c:	10800517 	ldw	r2,20(r2)
    1350:	10801960 	cmpeqi	r2,r2,101
    1354:	10000e1e 	bne	r2,zero,1390 <jpeg_write_scanlines+0x64>
		ERREXIT1(cinfo, JERR_BAD_STATE, cinfo->global_state);
    1358:	e0bffd17 	ldw	r2,-12(fp)
    135c:	10800017 	ldw	r2,0(r2)
    1360:	00c00544 	movi	r3,21
    1364:	10c00515 	stw	r3,20(r2)
    1368:	e0bffd17 	ldw	r2,-12(fp)
    136c:	10800017 	ldw	r2,0(r2)
    1370:	e0fffd17 	ldw	r3,-12(fp)
    1374:	18c00517 	ldw	r3,20(r3)
    1378:	10c00615 	stw	r3,24(r2)
    137c:	e0bffd17 	ldw	r2,-12(fp)
    1380:	10800017 	ldw	r2,0(r2)
    1384:	10800017 	ldw	r2,0(r2)
    1388:	e13ffd17 	ldw	r4,-12(fp)
    138c:	103ee83a 	callr	r2
	if (cinfo->next_scanline >= cinfo->image_height)
    1390:	e0bffd17 	ldw	r2,-12(fp)
    1394:	10c03c17 	ldw	r3,240(r2)
    1398:	e0bffd17 	ldw	r2,-12(fp)
    139c:	10800817 	ldw	r2,32(r2)
    13a0:	18800a36 	bltu	r3,r2,13cc <jpeg_write_scanlines+0xa0>
		WARNMS(cinfo, JWRN_TOO_MUCH_DATA);
    13a4:	e0bffd17 	ldw	r2,-12(fp)
    13a8:	10800017 	ldw	r2,0(r2)
    13ac:	00c01f84 	movi	r3,126
    13b0:	10c00515 	stw	r3,20(r2)
    13b4:	e0bffd17 	ldw	r2,-12(fp)
    13b8:	10800017 	ldw	r2,0(r2)
    13bc:	10800117 	ldw	r2,4(r2)
    13c0:	e13ffd17 	ldw	r4,-12(fp)
    13c4:	017fffc4 	movi	r5,-1
    13c8:	103ee83a 	callr	r2

	/* Call progress monitor hook if present */
	if (cinfo->progress != NULL) {
    13cc:	e0bffd17 	ldw	r2,-12(fp)
    13d0:	10800217 	ldw	r2,8(r2)
    13d4:	10000f26 	beq	r2,zero,1414 <jpeg_write_scanlines+0xe8>
		cinfo->progress->pass_counter = (long) cinfo->next_scanline;
    13d8:	e0bffd17 	ldw	r2,-12(fp)
    13dc:	10800217 	ldw	r2,8(r2)
    13e0:	e0fffd17 	ldw	r3,-12(fp)
    13e4:	18c03c17 	ldw	r3,240(r3)
    13e8:	10c00115 	stw	r3,4(r2)
		cinfo->progress->pass_limit = (long) cinfo->image_height;
    13ec:	e0bffd17 	ldw	r2,-12(fp)
    13f0:	10800217 	ldw	r2,8(r2)
    13f4:	e0fffd17 	ldw	r3,-12(fp)
    13f8:	18c00817 	ldw	r3,32(r3)
    13fc:	10c00215 	stw	r3,8(r2)
		(*cinfo->progress->progress_monitor) ((j_common_ptr) cinfo);
    1400:	e0bffd17 	ldw	r2,-12(fp)
    1404:	10800217 	ldw	r2,8(r2)
    1408:	10800017 	ldw	r2,0(r2)
    140c:	e13ffd17 	ldw	r4,-12(fp)
    1410:	103ee83a 	callr	r2
	/* Give master control module another chance if this is first call to
	* jpeg_write_scanlines.  This lets output of the frame/scan headers be
	* delayed so that application can write COM, etc, markers between
	* jpeg_start_compress and jpeg_write_scanlines.
	*/
	if (cinfo->master->call_pass_startup)
    1414:	e0bffd17 	ldw	r2,-12(fp)
    1418:	10805c17 	ldw	r2,368(r2)
    141c:	10800303 	ldbu	r2,12(r2)
    1420:	10803fcc 	andi	r2,r2,255
    1424:	10000526 	beq	r2,zero,143c <jpeg_write_scanlines+0x110>
		(*cinfo->master->pass_startup) (cinfo);
    1428:	e0bffd17 	ldw	r2,-12(fp)
    142c:	10805c17 	ldw	r2,368(r2)
    1430:	10800117 	ldw	r2,4(r2)
    1434:	e13ffd17 	ldw	r4,-12(fp)
    1438:	103ee83a 	callr	r2

	/* Ignore any extra scanlines at bottom of image. */
	rows_left = cinfo->image_height - cinfo->next_scanline;
    143c:	e0bffd17 	ldw	r2,-12(fp)
    1440:	10c00817 	ldw	r3,32(r2)
    1444:	e0bffd17 	ldw	r2,-12(fp)
    1448:	10803c17 	ldw	r2,240(r2)
    144c:	1885c83a 	sub	r2,r3,r2
    1450:	e0bffb15 	stw	r2,-20(fp)
	if (num_lines > rows_left)
    1454:	e0bfff17 	ldw	r2,-4(fp)
    1458:	e0fffb17 	ldw	r3,-20(fp)
    145c:	1880022e 	bgeu	r3,r2,1468 <jpeg_write_scanlines+0x13c>
		num_lines = rows_left;
    1460:	e0bffb17 	ldw	r2,-20(fp)
    1464:	e0bfff15 	stw	r2,-4(fp)

	row_ctr = 0;
    1468:	e03ffc15 	stw	zero,-16(fp)
	(*cinfo->main->process_data) (cinfo, scanlines, &row_ctr, num_lines);
    146c:	e0bffd17 	ldw	r2,-12(fp)
    1470:	10805d17 	ldw	r2,372(r2)
    1474:	10c00117 	ldw	r3,4(r2)
    1478:	e0bffc04 	addi	r2,fp,-16
    147c:	e13ffd17 	ldw	r4,-12(fp)
    1480:	e17ffe17 	ldw	r5,-8(fp)
    1484:	100d883a 	mov	r6,r2
    1488:	e1ffff17 	ldw	r7,-4(fp)
    148c:	183ee83a 	callr	r3
	cinfo->next_scanline += row_ctr;
    1490:	e0bffd17 	ldw	r2,-12(fp)
    1494:	10c03c17 	ldw	r3,240(r2)
    1498:	e0bffc17 	ldw	r2,-16(fp)
    149c:	1887883a 	add	r3,r3,r2
    14a0:	e0bffd17 	ldw	r2,-12(fp)
    14a4:	10c03c15 	stw	r3,240(r2)
	return row_ctr;
    14a8:	e0bffc17 	ldw	r2,-16(fp)
}
    14ac:	e037883a 	mov	sp,fp
    14b0:	dfc00117 	ldw	ra,4(sp)
    14b4:	df000017 	ldw	fp,0(sp)
    14b8:	dec00204 	addi	sp,sp,8
    14bc:	f800283a 	ret

000014c0 <jpeg_write_raw_data>:
*/

GLOBAL(JDIMENSION)
	jpeg_write_raw_data (j_compress_ptr cinfo, JSAMPIMAGE data,
	JDIMENSION num_lines)
{
    14c0:	defffa04 	addi	sp,sp,-24
    14c4:	dfc00515 	stw	ra,20(sp)
    14c8:	df000415 	stw	fp,16(sp)
    14cc:	df000404 	addi	fp,sp,16
    14d0:	e13ffd15 	stw	r4,-12(fp)
    14d4:	e17ffe15 	stw	r5,-8(fp)
    14d8:	e1bfff15 	stw	r6,-4(fp)
	JDIMENSION lines_per_iMCU_row;

	if (cinfo->global_state != CSTATE_RAW_OK)
    14dc:	e0bffd17 	ldw	r2,-12(fp)
    14e0:	10800517 	ldw	r2,20(r2)
    14e4:	108019a0 	cmpeqi	r2,r2,102
    14e8:	10000e1e 	bne	r2,zero,1524 <jpeg_write_raw_data+0x64>
		ERREXIT1(cinfo, JERR_BAD_STATE, cinfo->global_state);
    14ec:	e0bffd17 	ldw	r2,-12(fp)
    14f0:	10800017 	ldw	r2,0(r2)
    14f4:	00c00544 	movi	r3,21
    14f8:	10c00515 	stw	r3,20(r2)
    14fc:	e0bffd17 	ldw	r2,-12(fp)
    1500:	10800017 	ldw	r2,0(r2)
    1504:	e0fffd17 	ldw	r3,-12(fp)
    1508:	18c00517 	ldw	r3,20(r3)
    150c:	10c00615 	stw	r3,24(r2)
    1510:	e0bffd17 	ldw	r2,-12(fp)
    1514:	10800017 	ldw	r2,0(r2)
    1518:	10800017 	ldw	r2,0(r2)
    151c:	e13ffd17 	ldw	r4,-12(fp)
    1520:	103ee83a 	callr	r2
	if (cinfo->next_scanline >= cinfo->image_height) {
    1524:	e0bffd17 	ldw	r2,-12(fp)
    1528:	10c03c17 	ldw	r3,240(r2)
    152c:	e0bffd17 	ldw	r2,-12(fp)
    1530:	10800817 	ldw	r2,32(r2)
    1534:	18800c36 	bltu	r3,r2,1568 <jpeg_write_raw_data+0xa8>
		WARNMS(cinfo, JWRN_TOO_MUCH_DATA);
    1538:	e0bffd17 	ldw	r2,-12(fp)
    153c:	10800017 	ldw	r2,0(r2)
    1540:	00c01f84 	movi	r3,126
    1544:	10c00515 	stw	r3,20(r2)
    1548:	e0bffd17 	ldw	r2,-12(fp)
    154c:	10800017 	ldw	r2,0(r2)
    1550:	10800117 	ldw	r2,4(r2)
    1554:	e13ffd17 	ldw	r4,-12(fp)
    1558:	017fffc4 	movi	r5,-1
    155c:	103ee83a 	callr	r2
		return 0;
    1560:	0005883a 	mov	r2,zero
    1564:	00003d06 	br	165c <jpeg_write_raw_data+0x19c>
	}

	/* Call progress monitor hook if present */
	if (cinfo->progress != NULL) {
    1568:	e0bffd17 	ldw	r2,-12(fp)
    156c:	10800217 	ldw	r2,8(r2)
    1570:	10000f26 	beq	r2,zero,15b0 <jpeg_write_raw_data+0xf0>
		cinfo->progress->pass_counter = (long) cinfo->next_scanline;
    1574:	e0bffd17 	ldw	r2,-12(fp)
    1578:	10800217 	ldw	r2,8(r2)
    157c:	e0fffd17 	ldw	r3,-12(fp)
    1580:	18c03c17 	ldw	r3,240(r3)
    1584:	10c00115 	stw	r3,4(r2)
		cinfo->progress->pass_limit = (long) cinfo->image_height;
    1588:	e0bffd17 	ldw	r2,-12(fp)
    158c:	10800217 	ldw	r2,8(r2)
    1590:	e0fffd17 	ldw	r3,-12(fp)
    1594:	18c00817 	ldw	r3,32(r3)
    1598:	10c00215 	stw	r3,8(r2)
		(*cinfo->progress->progress_monitor) ((j_common_ptr) cinfo);
    159c:	e0bffd17 	ldw	r2,-12(fp)
    15a0:	10800217 	ldw	r2,8(r2)
    15a4:	10800017 	ldw	r2,0(r2)
    15a8:	e13ffd17 	ldw	r4,-12(fp)
    15ac:	103ee83a 	callr	r2
	/* Give master control module another chance if this is first call to
	* jpeg_write_raw_data.  This lets output of the frame/scan headers be
	* delayed so that application can write COM, etc, markers between
	* jpeg_start_compress and jpeg_write_raw_data.
	*/
	if (cinfo->master->call_pass_startup)
    15b0:	e0bffd17 	ldw	r2,-12(fp)
    15b4:	10805c17 	ldw	r2,368(r2)
    15b8:	10800303 	ldbu	r2,12(r2)
    15bc:	10803fcc 	andi	r2,r2,255
    15c0:	10000526 	beq	r2,zero,15d8 <jpeg_write_raw_data+0x118>
		(*cinfo->master->pass_startup) (cinfo);
    15c4:	e0bffd17 	ldw	r2,-12(fp)
    15c8:	10805c17 	ldw	r2,368(r2)
    15cc:	10800117 	ldw	r2,4(r2)
    15d0:	e13ffd17 	ldw	r4,-12(fp)
    15d4:	103ee83a 	callr	r2

	/* Verify that at least one iMCU row has been passed. */
	lines_per_iMCU_row = cinfo->max_v_samp_factor * DCTSIZE;
    15d8:	e0bffd17 	ldw	r2,-12(fp)
    15dc:	10803f17 	ldw	r2,252(r2)
    15e0:	100490fa 	slli	r2,r2,3
    15e4:	e0bffc15 	stw	r2,-16(fp)
	if (num_lines < lines_per_iMCU_row)
    15e8:	e0ffff17 	ldw	r3,-4(fp)
    15ec:	e0bffc17 	ldw	r2,-16(fp)
    15f0:	1880092e 	bgeu	r3,r2,1618 <jpeg_write_raw_data+0x158>
		ERREXIT(cinfo, JERR_BUFFER_SIZE);
    15f4:	e0bffd17 	ldw	r2,-12(fp)
    15f8:	10800017 	ldw	r2,0(r2)
    15fc:	00c00604 	movi	r3,24
    1600:	10c00515 	stw	r3,20(r2)
    1604:	e0bffd17 	ldw	r2,-12(fp)
    1608:	10800017 	ldw	r2,0(r2)
    160c:	10800017 	ldw	r2,0(r2)
    1610:	e13ffd17 	ldw	r4,-12(fp)
    1614:	103ee83a 	callr	r2

	/* Directly compress the row. */
	if (! (*cinfo->coef->compress_data) (cinfo, data)) {
    1618:	e0bffd17 	ldw	r2,-12(fp)
    161c:	10805f17 	ldw	r2,380(r2)
    1620:	10800117 	ldw	r2,4(r2)
    1624:	e13ffd17 	ldw	r4,-12(fp)
    1628:	e17ffe17 	ldw	r5,-8(fp)
    162c:	103ee83a 	callr	r2
    1630:	10803fcc 	andi	r2,r2,255
    1634:	1000021e 	bne	r2,zero,1640 <jpeg_write_raw_data+0x180>
		/* If compressor did not consume the whole row, suspend processing. */
		return 0;
    1638:	0005883a 	mov	r2,zero
    163c:	00000706 	br	165c <jpeg_write_raw_data+0x19c>
	}

	/* OK, we processed one iMCU row. */
	cinfo->next_scanline += lines_per_iMCU_row;
    1640:	e0bffd17 	ldw	r2,-12(fp)
    1644:	10c03c17 	ldw	r3,240(r2)
    1648:	e0bffc17 	ldw	r2,-16(fp)
    164c:	1887883a 	add	r3,r3,r2
    1650:	e0bffd17 	ldw	r2,-12(fp)
    1654:	10c03c15 	stw	r3,240(r2)
	return lines_per_iMCU_row;
    1658:	e0bffc17 	ldw	r2,-16(fp)
}
    165c:	e037883a 	mov	sp,fp
    1660:	dfc00117 	ldw	ra,4(sp)
    1664:	df000017 	ldw	fp,0(sp)
    1668:	dec00204 	addi	sp,sp,8
    166c:	f800283a 	ret

00001670 <emit_byte>:


LOCAL(void)
	emit_byte (int val, j_compress_ptr cinfo)
	/* Write next output byte; we do not support suspension in this module. */
{
    1670:	defffb04 	addi	sp,sp,-20
    1674:	dfc00415 	stw	ra,16(sp)
    1678:	df000315 	stw	fp,12(sp)
    167c:	df000304 	addi	fp,sp,12
    1680:	e13ffe15 	stw	r4,-8(fp)
    1684:	e17fff15 	stw	r5,-4(fp)
	struct jpeg_destination_mgr * dest = cinfo->dest;
    1688:	e0bfff17 	ldw	r2,-4(fp)
    168c:	10800617 	ldw	r2,24(r2)
    1690:	e0bffd15 	stw	r2,-12(fp)

	*dest->next_output_byte++ = (JOCTET) val;
    1694:	e0bffd17 	ldw	r2,-12(fp)
    1698:	10800017 	ldw	r2,0(r2)
    169c:	e0fffe17 	ldw	r3,-8(fp)
    16a0:	10c00005 	stb	r3,0(r2)
    16a4:	10c00044 	addi	r3,r2,1
    16a8:	e0bffd17 	ldw	r2,-12(fp)
    16ac:	10c00015 	stw	r3,0(r2)
	if (--dest->free_in_buffer == 0)
    16b0:	e0bffd17 	ldw	r2,-12(fp)
    16b4:	10800117 	ldw	r2,4(r2)
    16b8:	10ffffc4 	addi	r3,r2,-1
    16bc:	e0bffd17 	ldw	r2,-12(fp)
    16c0:	10c00115 	stw	r3,4(r2)
    16c4:	e0bffd17 	ldw	r2,-12(fp)
    16c8:	10800117 	ldw	r2,4(r2)
    16cc:	10000f1e 	bne	r2,zero,170c <emit_byte+0x9c>
		if (! (*dest->empty_output_buffer) (cinfo))
    16d0:	e0bffd17 	ldw	r2,-12(fp)
    16d4:	10800317 	ldw	r2,12(r2)
    16d8:	e13fff17 	ldw	r4,-4(fp)
    16dc:	103ee83a 	callr	r2
    16e0:	10803fcc 	andi	r2,r2,255
    16e4:	1000091e 	bne	r2,zero,170c <emit_byte+0x9c>
			ERREXIT(cinfo, JERR_CANT_SUSPEND);
    16e8:	e0bfff17 	ldw	r2,-4(fp)
    16ec:	10800017 	ldw	r2,0(r2)
    16f0:	00c00644 	movi	r3,25
    16f4:	10c00515 	stw	r3,20(r2)
    16f8:	e0bfff17 	ldw	r2,-4(fp)
    16fc:	10800017 	ldw	r2,0(r2)
    1700:	10800017 	ldw	r2,0(r2)
    1704:	e13fff17 	ldw	r4,-4(fp)
    1708:	103ee83a 	callr	r2
}
    170c:	e037883a 	mov	sp,fp
    1710:	dfc00117 	ldw	ra,4(sp)
    1714:	df000017 	ldw	fp,0(sp)
    1718:	dec00204 	addi	sp,sp,8
    171c:	f800283a 	ret

00001720 <finish_pass>:
* Finish up at the end of an arithmetic-compressed scan.
*/

METHODDEF(void)
	finish_pass (j_compress_ptr cinfo)
{
    1720:	defffb04 	addi	sp,sp,-20
    1724:	dfc00415 	stw	ra,16(sp)
    1728:	df000315 	stw	fp,12(sp)
    172c:	df000304 	addi	fp,sp,12
    1730:	e13fff15 	stw	r4,-4(fp)
	arith_entropy_ptr e = (arith_entropy_ptr) cinfo->entropy;
    1734:	e0bfff17 	ldw	r2,-4(fp)
    1738:	10806417 	ldw	r2,400(r2)
    173c:	e0bffd15 	stw	r2,-12(fp)

	/* Section D.1.8: Termination of encoding */

	/* Find the e->c in the coding interval with the largest
	* number of trailing zero bits */
	if ((temp = (e->a - 1 + e->c) & 0xFFFF0000L) < e->c)
    1740:	e0bffd17 	ldw	r2,-12(fp)
    1744:	10800417 	ldw	r2,16(r2)
    1748:	10ffffc4 	addi	r3,r2,-1
    174c:	e0bffd17 	ldw	r2,-12(fp)
    1750:	10800317 	ldw	r2,12(r2)
    1754:	1885883a 	add	r2,r3,r2
    1758:	10bfffec 	andhi	r2,r2,65535
    175c:	e0bffe15 	stw	r2,-8(fp)
    1760:	e0bffd17 	ldw	r2,-12(fp)
    1764:	10800317 	ldw	r2,12(r2)
    1768:	e0fffe17 	ldw	r3,-8(fp)
    176c:	1880060e 	bge	r3,r2,1788 <finish_pass+0x68>
		e->c = temp + 0x8000L;
    1770:	e0fffe17 	ldw	r3,-8(fp)
    1774:	00a00014 	movui	r2,32768
    1778:	1887883a 	add	r3,r3,r2
    177c:	e0bffd17 	ldw	r2,-12(fp)
    1780:	10c00315 	stw	r3,12(r2)
    1784:	00000306 	br	1794 <finish_pass+0x74>
	else
		e->c = temp;
    1788:	e0bffd17 	ldw	r2,-12(fp)
    178c:	e0fffe17 	ldw	r3,-8(fp)
    1790:	10c00315 	stw	r3,12(r2)
	/* Send remaining bytes to output */
	e->c <<= e->ct;
    1794:	e0bffd17 	ldw	r2,-12(fp)
    1798:	10c00317 	ldw	r3,12(r2)
    179c:	e0bffd17 	ldw	r2,-12(fp)
    17a0:	10800717 	ldw	r2,28(r2)
    17a4:	1886983a 	sll	r3,r3,r2
    17a8:	e0bffd17 	ldw	r2,-12(fp)
    17ac:	10c00315 	stw	r3,12(r2)
	if (e->c & 0xF8000000L) {
    17b0:	e0bffd17 	ldw	r2,-12(fp)
    17b4:	10800317 	ldw	r2,12(r2)
    17b8:	10be002c 	andhi	r2,r2,63488
    17bc:	10002826 	beq	r2,zero,1860 <finish_pass+0x140>
		/* One final overflow has to be handled */
		if (e->buffer >= 0) {
    17c0:	e0bffd17 	ldw	r2,-12(fp)
    17c4:	10800817 	ldw	r2,32(r2)
    17c8:	10001b16 	blt	r2,zero,1838 <finish_pass+0x118>
			if (e->zc)
    17cc:	e0bffd17 	ldw	r2,-12(fp)
    17d0:	10800617 	ldw	r2,24(r2)
    17d4:	10000b26 	beq	r2,zero,1804 <finish_pass+0xe4>
				do emit_byte(0x00, cinfo);
    17d8:	0009883a 	mov	r4,zero
    17dc:	e17fff17 	ldw	r5,-4(fp)
    17e0:	00016700 	call	1670 <emit_byte>
			while (--e->zc);
    17e4:	e0bffd17 	ldw	r2,-12(fp)
    17e8:	10800617 	ldw	r2,24(r2)
    17ec:	10ffffc4 	addi	r3,r2,-1
    17f0:	e0bffd17 	ldw	r2,-12(fp)
    17f4:	10c00615 	stw	r3,24(r2)
    17f8:	e0bffd17 	ldw	r2,-12(fp)
    17fc:	10800617 	ldw	r2,24(r2)
    1800:	103ff51e 	bne	r2,zero,17d8 <finish_pass+0xb8>
			emit_byte(e->buffer + 1, cinfo);
    1804:	e0bffd17 	ldw	r2,-12(fp)
    1808:	10800817 	ldw	r2,32(r2)
    180c:	10800044 	addi	r2,r2,1
    1810:	1009883a 	mov	r4,r2
    1814:	e17fff17 	ldw	r5,-4(fp)
    1818:	00016700 	call	1670 <emit_byte>
			if (e->buffer + 1 == 0xFF)
    181c:	e0bffd17 	ldw	r2,-12(fp)
    1820:	10800817 	ldw	r2,32(r2)
    1824:	10803f98 	cmpnei	r2,r2,254
    1828:	1000031e 	bne	r2,zero,1838 <finish_pass+0x118>
				emit_byte(0x00, cinfo);
    182c:	0009883a 	mov	r4,zero
    1830:	e17fff17 	ldw	r5,-4(fp)
    1834:	00016700 	call	1670 <emit_byte>
		}
		e->zc += e->sc;  /* carry-over converts stacked 0xFF bytes to 0x00 */
    1838:	e0bffd17 	ldw	r2,-12(fp)
    183c:	10c00617 	ldw	r3,24(r2)
    1840:	e0bffd17 	ldw	r2,-12(fp)
    1844:	10800517 	ldw	r2,20(r2)
    1848:	1887883a 	add	r3,r3,r2
    184c:	e0bffd17 	ldw	r2,-12(fp)
    1850:	10c00615 	stw	r3,24(r2)
		e->sc = 0;
    1854:	e0bffd17 	ldw	r2,-12(fp)
    1858:	10000515 	stw	zero,20(r2)
    185c:	00003e06 	br	1958 <finish_pass+0x238>
	} else {
		if (e->buffer == 0)
    1860:	e0bffd17 	ldw	r2,-12(fp)
    1864:	10800817 	ldw	r2,32(r2)
    1868:	1000061e 	bne	r2,zero,1884 <finish_pass+0x164>
			++e->zc;
    186c:	e0bffd17 	ldw	r2,-12(fp)
    1870:	10800617 	ldw	r2,24(r2)
    1874:	10c00044 	addi	r3,r2,1
    1878:	e0bffd17 	ldw	r2,-12(fp)
    187c:	10c00615 	stw	r3,24(r2)
    1880:	00001606 	br	18dc <finish_pass+0x1bc>
		else if (e->buffer >= 0) {
    1884:	e0bffd17 	ldw	r2,-12(fp)
    1888:	10800817 	ldw	r2,32(r2)
    188c:	10001316 	blt	r2,zero,18dc <finish_pass+0x1bc>
			if (e->zc)
    1890:	e0bffd17 	ldw	r2,-12(fp)
    1894:	10800617 	ldw	r2,24(r2)
    1898:	10000b26 	beq	r2,zero,18c8 <finish_pass+0x1a8>
				do emit_byte(0x00, cinfo);
    189c:	0009883a 	mov	r4,zero
    18a0:	e17fff17 	ldw	r5,-4(fp)
    18a4:	00016700 	call	1670 <emit_byte>
			while (--e->zc);
    18a8:	e0bffd17 	ldw	r2,-12(fp)
    18ac:	10800617 	ldw	r2,24(r2)
    18b0:	10ffffc4 	addi	r3,r2,-1
    18b4:	e0bffd17 	ldw	r2,-12(fp)
    18b8:	10c00615 	stw	r3,24(r2)
    18bc:	e0bffd17 	ldw	r2,-12(fp)
    18c0:	10800617 	ldw	r2,24(r2)
    18c4:	103ff51e 	bne	r2,zero,189c <finish_pass+0x17c>
			emit_byte(e->buffer, cinfo);
    18c8:	e0bffd17 	ldw	r2,-12(fp)
    18cc:	10800817 	ldw	r2,32(r2)
    18d0:	1009883a 	mov	r4,r2
    18d4:	e17fff17 	ldw	r5,-4(fp)
    18d8:	00016700 	call	1670 <emit_byte>
		}
		if (e->sc) {
    18dc:	e0bffd17 	ldw	r2,-12(fp)
    18e0:	10800517 	ldw	r2,20(r2)
    18e4:	10001c26 	beq	r2,zero,1958 <finish_pass+0x238>
			if (e->zc)
    18e8:	e0bffd17 	ldw	r2,-12(fp)
    18ec:	10800617 	ldw	r2,24(r2)
    18f0:	10000b26 	beq	r2,zero,1920 <finish_pass+0x200>
				do emit_byte(0x00, cinfo);
    18f4:	0009883a 	mov	r4,zero
    18f8:	e17fff17 	ldw	r5,-4(fp)
    18fc:	00016700 	call	1670 <emit_byte>
			while (--e->zc);
    1900:	e0bffd17 	ldw	r2,-12(fp)
    1904:	10800617 	ldw	r2,24(r2)
    1908:	10ffffc4 	addi	r3,r2,-1
    190c:	e0bffd17 	ldw	r2,-12(fp)
    1910:	10c00615 	stw	r3,24(r2)
    1914:	e0bffd17 	ldw	r2,-12(fp)
    1918:	10800617 	ldw	r2,24(r2)
    191c:	103ff51e 	bne	r2,zero,18f4 <finish_pass+0x1d4>
			do {
				emit_byte(0xFF, cinfo);
    1920:	01003fc4 	movi	r4,255
    1924:	e17fff17 	ldw	r5,-4(fp)
    1928:	00016700 	call	1670 <emit_byte>
				emit_byte(0x00, cinfo);
    192c:	0009883a 	mov	r4,zero
    1930:	e17fff17 	ldw	r5,-4(fp)
    1934:	00016700 	call	1670 <emit_byte>
			} while (--e->sc);
    1938:	e0bffd17 	ldw	r2,-12(fp)
    193c:	10800517 	ldw	r2,20(r2)
    1940:	10ffffc4 	addi	r3,r2,-1
    1944:	e0bffd17 	ldw	r2,-12(fp)
    1948:	10c00515 	stw	r3,20(r2)
    194c:	e0bffd17 	ldw	r2,-12(fp)
    1950:	10800517 	ldw	r2,20(r2)
    1954:	103ff21e 	bne	r2,zero,1920 <finish_pass+0x200>
		}
	}
	/* Output final bytes only if they are not 0x00 */
	if (e->c & 0x7FFF800L) {
    1958:	e0bffd17 	ldw	r2,-12(fp)
    195c:	10c00317 	ldw	r3,12(r2)
    1960:	00820034 	movhi	r2,2048
    1964:	10be0004 	addi	r2,r2,-2048
    1968:	1884703a 	and	r2,r3,r2
    196c:	10003426 	beq	r2,zero,1a40 <finish_pass+0x320>
		if (e->zc)  /* output final pending zero bytes */
    1970:	e0bffd17 	ldw	r2,-12(fp)
    1974:	10800617 	ldw	r2,24(r2)
    1978:	10000b26 	beq	r2,zero,19a8 <finish_pass+0x288>
			do emit_byte(0x00, cinfo);
    197c:	0009883a 	mov	r4,zero
    1980:	e17fff17 	ldw	r5,-4(fp)
    1984:	00016700 	call	1670 <emit_byte>
		while (--e->zc);
    1988:	e0bffd17 	ldw	r2,-12(fp)
    198c:	10800617 	ldw	r2,24(r2)
    1990:	10ffffc4 	addi	r3,r2,-1
    1994:	e0bffd17 	ldw	r2,-12(fp)
    1998:	10c00615 	stw	r3,24(r2)
    199c:	e0bffd17 	ldw	r2,-12(fp)
    19a0:	10800617 	ldw	r2,24(r2)
    19a4:	103ff51e 	bne	r2,zero,197c <finish_pass+0x25c>
		emit_byte((e->c >> 19) & 0xFF, cinfo);
    19a8:	e0bffd17 	ldw	r2,-12(fp)
    19ac:	10800317 	ldw	r2,12(r2)
    19b0:	1005d4fa 	srai	r2,r2,19
    19b4:	10803fcc 	andi	r2,r2,255
    19b8:	1009883a 	mov	r4,r2
    19bc:	e17fff17 	ldw	r5,-4(fp)
    19c0:	00016700 	call	1670 <emit_byte>
		if (((e->c >> 19) & 0xFF) == 0xFF)
    19c4:	e0bffd17 	ldw	r2,-12(fp)
    19c8:	10800317 	ldw	r2,12(r2)
    19cc:	1005d4fa 	srai	r2,r2,19
    19d0:	10803fcc 	andi	r2,r2,255
    19d4:	10803fd8 	cmpnei	r2,r2,255
    19d8:	1000031e 	bne	r2,zero,19e8 <finish_pass+0x2c8>
			emit_byte(0x00, cinfo);
    19dc:	0009883a 	mov	r4,zero
    19e0:	e17fff17 	ldw	r5,-4(fp)
    19e4:	00016700 	call	1670 <emit_byte>
		if (e->c & 0x7F800L) {
    19e8:	e0bffd17 	ldw	r2,-12(fp)
    19ec:	10c00317 	ldw	r3,12(r2)
    19f0:	00800234 	movhi	r2,8
    19f4:	10be0004 	addi	r2,r2,-2048
    19f8:	1884703a 	and	r2,r3,r2
    19fc:	10001026 	beq	r2,zero,1a40 <finish_pass+0x320>
			emit_byte((e->c >> 11) & 0xFF, cinfo);
    1a00:	e0bffd17 	ldw	r2,-12(fp)
    1a04:	10800317 	ldw	r2,12(r2)
    1a08:	1005d2fa 	srai	r2,r2,11
    1a0c:	10803fcc 	andi	r2,r2,255
    1a10:	1009883a 	mov	r4,r2
    1a14:	e17fff17 	ldw	r5,-4(fp)
    1a18:	00016700 	call	1670 <emit_byte>
			if (((e->c >> 11) & 0xFF) == 0xFF)
    1a1c:	e0bffd17 	ldw	r2,-12(fp)
    1a20:	10800317 	ldw	r2,12(r2)
    1a24:	1005d2fa 	srai	r2,r2,11
    1a28:	10803fcc 	andi	r2,r2,255
    1a2c:	10803fd8 	cmpnei	r2,r2,255
    1a30:	1000031e 	bne	r2,zero,1a40 <finish_pass+0x320>
				emit_byte(0x00, cinfo);
    1a34:	0009883a 	mov	r4,zero
    1a38:	e17fff17 	ldw	r5,-4(fp)
    1a3c:	00016700 	call	1670 <emit_byte>
		}
	}
}
    1a40:	e037883a 	mov	sp,fp
    1a44:	dfc00117 	ldw	ra,4(sp)
    1a48:	df000017 	ldw	fp,0(sp)
    1a4c:	dec00204 	addi	sp,sp,8
    1a50:	f800283a 	ret

00001a54 <arith_encode>:
* derived from Markus Kuhn's JBIG implementation.
*/

LOCAL(void)
	arith_encode (j_compress_ptr cinfo, unsigned char *st, int val) 
{
    1a54:	defff604 	addi	sp,sp,-40
    1a58:	dfc00915 	stw	ra,36(sp)
    1a5c:	df000815 	stw	fp,32(sp)
    1a60:	dd000715 	stw	r20,28(sp)
    1a64:	dcc00615 	stw	r19,24(sp)
    1a68:	dc800515 	stw	r18,20(sp)
    1a6c:	dc400415 	stw	r17,16(sp)
    1a70:	dc000315 	stw	r16,12(sp)
    1a74:	df000304 	addi	fp,sp,12
    1a78:	e13ffd15 	stw	r4,-12(fp)
    1a7c:	e17ffe15 	stw	r5,-8(fp)
    1a80:	e1bfff15 	stw	r6,-4(fp)
	register arith_entropy_ptr e = (arith_entropy_ptr) cinfo->entropy;
    1a84:	e0bffd17 	ldw	r2,-12(fp)
    1a88:	14006417 	ldw	r16,400(r2)
	register int sv;

	/* Fetch values from our compact representation of Table D.2:
	* Qe values and probability estimation state machine
	*/
	sv = *st;
    1a8c:	e0bffe17 	ldw	r2,-8(fp)
    1a90:	10800003 	ldbu	r2,0(r2)
    1a94:	14803fcc 	andi	r18,r2,255
	qe = jpeg_aritab[sv & 0x7F];	/* => Qe_Value */
    1a98:	90801fcc 	andi	r2,r18,127
    1a9c:	00c00134 	movhi	r3,4
    1aa0:	18fba504 	addi	r3,r3,-4460
    1aa4:	1085883a 	add	r2,r2,r2
    1aa8:	1085883a 	add	r2,r2,r2
    1aac:	1885883a 	add	r2,r3,r2
    1ab0:	14400017 	ldw	r17,0(r2)
	nl = qe & 0xFF; qe >>= 8;	/* Next_Index_LPS + Switch_MPS */
    1ab4:	8829883a 	mov	r20,r17
    1ab8:	8823d23a 	srai	r17,r17,8
	nm = qe & 0xFF; qe >>= 8;	/* Next_Index_MPS */
    1abc:	8827883a 	mov	r19,r17
    1ac0:	8823d23a 	srai	r17,r17,8

	/* Encode & estimation procedures per sections D.1.4 & D.1.5 */
	e->a -= qe;
    1ac4:	80800417 	ldw	r2,16(r16)
    1ac8:	1445c83a 	sub	r2,r2,r17
    1acc:	80800415 	stw	r2,16(r16)
	if (val != (sv >> 7)) {
    1ad0:	9007d1fa 	srai	r3,r18,7
    1ad4:	e0bfff17 	ldw	r2,-4(fp)
    1ad8:	18801126 	beq	r3,r2,1b20 <arith_encode+0xcc>
		/* Encode the less probable symbol */
		if (e->a >= qe) {
    1adc:	80800417 	ldw	r2,16(r16)
    1ae0:	14400516 	blt	r2,r17,1af8 <arith_encode+0xa4>
			/* If the interval size (qe) for the less probable symbol (LPS)
			* is larger than the interval size for the MPS, then exchange
			* the two symbols for coding efficiency, otherwise code the LPS
			* as usual: */
			e->c += e->a;
    1ae4:	80c00317 	ldw	r3,12(r16)
    1ae8:	80800417 	ldw	r2,16(r16)
    1aec:	1885883a 	add	r2,r3,r2
    1af0:	80800315 	stw	r2,12(r16)
			e->a = qe;
    1af4:	84400415 	stw	r17,16(r16)
		}
		*st = (sv & 0x80) ^ nl;	/* Estimate_after_LPS */
    1af8:	9007883a 	mov	r3,r18
    1afc:	00bfe004 	movi	r2,-128
    1b00:	1884703a 	and	r2,r3,r2
    1b04:	1007883a 	mov	r3,r2
    1b08:	a005883a 	mov	r2,r20
    1b0c:	1884f03a 	xor	r2,r3,r2
    1b10:	1007883a 	mov	r3,r2
    1b14:	e0bffe17 	ldw	r2,-8(fp)
    1b18:	10c00005 	stb	r3,0(r2)
    1b1c:	00001306 	br	1b6c <arith_encode+0x118>
	} else {
		/* Encode the more probable symbol */
		if (e->a >= 0x8000L)
    1b20:	80800417 	ldw	r2,16(r16)
    1b24:	00dfffc4 	movi	r3,32767
    1b28:	18807f16 	blt	r3,r2,1d28 <arith_encode+0x2d4>
			return;  /* A >= 0x8000 -> ready, no renormalization required */
		if (e->a < qe) {
    1b2c:	80800417 	ldw	r2,16(r16)
    1b30:	1440050e 	bge	r2,r17,1b48 <arith_encode+0xf4>
			/* If the interval size (qe) for the less probable symbol (LPS)
			* is larger than the interval size for the MPS, then exchange
			* the two symbols for coding efficiency: */
			e->c += e->a;
    1b34:	80c00317 	ldw	r3,12(r16)
    1b38:	80800417 	ldw	r2,16(r16)
    1b3c:	1885883a 	add	r2,r3,r2
    1b40:	80800315 	stw	r2,12(r16)
			e->a = qe;
    1b44:	84400415 	stw	r17,16(r16)
		}
		*st = (sv & 0x80) ^ nm;	/* Estimate_after_MPS */
    1b48:	9007883a 	mov	r3,r18
    1b4c:	00bfe004 	movi	r2,-128
    1b50:	1884703a 	and	r2,r3,r2
    1b54:	1007883a 	mov	r3,r2
    1b58:	9805883a 	mov	r2,r19
    1b5c:	1884f03a 	xor	r2,r3,r2
    1b60:	1007883a 	mov	r3,r2
    1b64:	e0bffe17 	ldw	r2,-8(fp)
    1b68:	10c00005 	stb	r3,0(r2)
	}

	/* Renormalization & data output per section D.1.6 */
	do {
		e->a <<= 1;
    1b6c:	80800417 	ldw	r2,16(r16)
    1b70:	1085883a 	add	r2,r2,r2
    1b74:	80800415 	stw	r2,16(r16)
		e->c <<= 1;
    1b78:	80800317 	ldw	r2,12(r16)
    1b7c:	1085883a 	add	r2,r2,r2
    1b80:	80800315 	stw	r2,12(r16)
		if (--e->ct == 0) {
    1b84:	80800717 	ldw	r2,28(r16)
    1b88:	10bfffc4 	addi	r2,r2,-1
    1b8c:	80800715 	stw	r2,28(r16)
    1b90:	80800717 	ldw	r2,28(r16)
    1b94:	1000601e 	bne	r2,zero,1d18 <arith_encode+0x2c4>
			/* Another byte is ready for output */
			temp = e->c >> 19;
    1b98:	80800317 	ldw	r2,12(r16)
    1b9c:	1023d4fa 	srai	r17,r2,19
			if (temp > 0xFF) {
    1ba0:	88804010 	cmplti	r2,r17,256
    1ba4:	10001f1e 	bne	r2,zero,1c24 <arith_encode+0x1d0>
				/* Handle overflow over all stacked 0xFF bytes */
				if (e->buffer >= 0) {
    1ba8:	80800817 	ldw	r2,32(r16)
    1bac:	10001516 	blt	r2,zero,1c04 <arith_encode+0x1b0>
					if (e->zc)
    1bb0:	80800617 	ldw	r2,24(r16)
    1bb4:	10000826 	beq	r2,zero,1bd8 <arith_encode+0x184>
						do emit_byte(0x00, cinfo);
    1bb8:	0009883a 	mov	r4,zero
    1bbc:	e17ffd17 	ldw	r5,-12(fp)
    1bc0:	00016700 	call	1670 <emit_byte>
					while (--e->zc);
    1bc4:	80800617 	ldw	r2,24(r16)
    1bc8:	10bfffc4 	addi	r2,r2,-1
    1bcc:	80800615 	stw	r2,24(r16)
    1bd0:	80800617 	ldw	r2,24(r16)
    1bd4:	103ff81e 	bne	r2,zero,1bb8 <arith_encode+0x164>
					emit_byte(e->buffer + 1, cinfo);
    1bd8:	80800817 	ldw	r2,32(r16)
    1bdc:	10800044 	addi	r2,r2,1
    1be0:	1009883a 	mov	r4,r2
    1be4:	e17ffd17 	ldw	r5,-12(fp)
    1be8:	00016700 	call	1670 <emit_byte>
					if (e->buffer + 1 == 0xFF)
    1bec:	80800817 	ldw	r2,32(r16)
    1bf0:	10803f98 	cmpnei	r2,r2,254
    1bf4:	1000031e 	bne	r2,zero,1c04 <arith_encode+0x1b0>
						emit_byte(0x00, cinfo);
    1bf8:	0009883a 	mov	r4,zero
    1bfc:	e17ffd17 	ldw	r5,-12(fp)
    1c00:	00016700 	call	1670 <emit_byte>
				}
				e->zc += e->sc;  /* carry-over converts stacked 0xFF bytes to 0x00 */
    1c04:	80c00617 	ldw	r3,24(r16)
    1c08:	80800517 	ldw	r2,20(r16)
    1c0c:	1885883a 	add	r2,r3,r2
    1c10:	80800615 	stw	r2,24(r16)
				e->sc = 0;
    1c14:	80000515 	stw	zero,20(r16)
				/* Note: The 3 spacer bits in the C register guarantee
				* that the new buffer byte can't be 0xFF here
				* (see page 160 in the P&M JPEG book). */
				e->buffer = temp & 0xFF;  /* new output byte, might overflow later */
    1c18:	88803fcc 	andi	r2,r17,255
    1c1c:	80800815 	stw	r2,32(r16)
    1c20:	00003506 	br	1cf8 <arith_encode+0x2a4>
			} else if (temp == 0xFF) {
    1c24:	88803fd8 	cmpnei	r2,r17,255
    1c28:	1000041e 	bne	r2,zero,1c3c <arith_encode+0x1e8>
				++e->sc;  /* stack 0xFF byte (which might overflow later) */
    1c2c:	80800517 	ldw	r2,20(r16)
    1c30:	10800044 	addi	r2,r2,1
    1c34:	80800515 	stw	r2,20(r16)
    1c38:	00002f06 	br	1cf8 <arith_encode+0x2a4>
			} else {
				/* Output all stacked 0xFF bytes, they will not overflow any more */
				if (e->buffer == 0)
    1c3c:	80800817 	ldw	r2,32(r16)
    1c40:	1000041e 	bne	r2,zero,1c54 <arith_encode+0x200>
					++e->zc;
    1c44:	80800617 	ldw	r2,24(r16)
    1c48:	10800044 	addi	r2,r2,1
    1c4c:	80800615 	stw	r2,24(r16)
    1c50:	00001006 	br	1c94 <arith_encode+0x240>
				else if (e->buffer >= 0) {
    1c54:	80800817 	ldw	r2,32(r16)
    1c58:	10000e16 	blt	r2,zero,1c94 <arith_encode+0x240>
					if (e->zc)
    1c5c:	80800617 	ldw	r2,24(r16)
    1c60:	10000826 	beq	r2,zero,1c84 <arith_encode+0x230>
						do emit_byte(0x00, cinfo);
    1c64:	0009883a 	mov	r4,zero
    1c68:	e17ffd17 	ldw	r5,-12(fp)
    1c6c:	00016700 	call	1670 <emit_byte>
					while (--e->zc);
    1c70:	80800617 	ldw	r2,24(r16)
    1c74:	10bfffc4 	addi	r2,r2,-1
    1c78:	80800615 	stw	r2,24(r16)
    1c7c:	80800617 	ldw	r2,24(r16)
    1c80:	103ff81e 	bne	r2,zero,1c64 <arith_encode+0x210>
					emit_byte(e->buffer, cinfo);
    1c84:	80800817 	ldw	r2,32(r16)
    1c88:	1009883a 	mov	r4,r2
    1c8c:	e17ffd17 	ldw	r5,-12(fp)
    1c90:	00016700 	call	1670 <emit_byte>
				}
				if (e->sc) {
    1c94:	80800517 	ldw	r2,20(r16)
    1c98:	10001526 	beq	r2,zero,1cf0 <arith_encode+0x29c>
					if (e->zc)
    1c9c:	80800617 	ldw	r2,24(r16)
    1ca0:	10000826 	beq	r2,zero,1cc4 <arith_encode+0x270>
						do emit_byte(0x00, cinfo);
    1ca4:	0009883a 	mov	r4,zero
    1ca8:	e17ffd17 	ldw	r5,-12(fp)
    1cac:	00016700 	call	1670 <emit_byte>
					while (--e->zc);
    1cb0:	80800617 	ldw	r2,24(r16)
    1cb4:	10bfffc4 	addi	r2,r2,-1
    1cb8:	80800615 	stw	r2,24(r16)
    1cbc:	80800617 	ldw	r2,24(r16)
    1cc0:	103ff81e 	bne	r2,zero,1ca4 <arith_encode+0x250>
					do {
						emit_byte(0xFF, cinfo);
    1cc4:	01003fc4 	movi	r4,255
    1cc8:	e17ffd17 	ldw	r5,-12(fp)
    1ccc:	00016700 	call	1670 <emit_byte>
						emit_byte(0x00, cinfo);
    1cd0:	0009883a 	mov	r4,zero
    1cd4:	e17ffd17 	ldw	r5,-12(fp)
    1cd8:	00016700 	call	1670 <emit_byte>
					} while (--e->sc);
    1cdc:	80800517 	ldw	r2,20(r16)
    1ce0:	10bfffc4 	addi	r2,r2,-1
    1ce4:	80800515 	stw	r2,20(r16)
    1ce8:	80800517 	ldw	r2,20(r16)
    1cec:	103ff51e 	bne	r2,zero,1cc4 <arith_encode+0x270>
				}
				e->buffer = temp & 0xFF;  /* new output byte (can still overflow) */
    1cf0:	88803fcc 	andi	r2,r17,255
    1cf4:	80800815 	stw	r2,32(r16)
			}
			e->c &= 0x7FFFFL;
    1cf8:	80c00317 	ldw	r3,12(r16)
    1cfc:	00800234 	movhi	r2,8
    1d00:	10bfffc4 	addi	r2,r2,-1
    1d04:	1884703a 	and	r2,r3,r2
    1d08:	80800315 	stw	r2,12(r16)
			e->ct += 8;
    1d0c:	80800717 	ldw	r2,28(r16)
    1d10:	10800204 	addi	r2,r2,8
    1d14:	80800715 	stw	r2,28(r16)
		}
	} while (e->a < 0x8000L);
    1d18:	80800417 	ldw	r2,16(r16)
    1d1c:	00dfffc4 	movi	r3,32767
    1d20:	18bf920e 	bge	r3,r2,1b6c <arith_encode+0x118>
    1d24:	00000106 	br	1d2c <arith_encode+0x2d8>
		}
		*st = (sv & 0x80) ^ nl;	/* Estimate_after_LPS */
	} else {
		/* Encode the more probable symbol */
		if (e->a >= 0x8000L)
			return;  /* A >= 0x8000 -> ready, no renormalization required */
    1d28:	0001883a 	nop
			}
			e->c &= 0x7FFFFL;
			e->ct += 8;
		}
	} while (e->a < 0x8000L);
}
    1d2c:	e037883a 	mov	sp,fp
    1d30:	dfc00617 	ldw	ra,24(sp)
    1d34:	df000517 	ldw	fp,20(sp)
    1d38:	dd000417 	ldw	r20,16(sp)
    1d3c:	dcc00317 	ldw	r19,12(sp)
    1d40:	dc800217 	ldw	r18,8(sp)
    1d44:	dc400117 	ldw	r17,4(sp)
    1d48:	dc000017 	ldw	r16,0(sp)
    1d4c:	dec00704 	addi	sp,sp,28
    1d50:	f800283a 	ret

00001d54 <emit_restart>:
* Emit a restart marker & resynchronize predictions.
*/

LOCAL(void)
	emit_restart (j_compress_ptr cinfo, int restart_num)
{
    1d54:	defff904 	addi	sp,sp,-28
    1d58:	dfc00615 	stw	ra,24(sp)
    1d5c:	df000515 	stw	fp,20(sp)
    1d60:	df000504 	addi	fp,sp,20
    1d64:	e13ffe15 	stw	r4,-8(fp)
    1d68:	e17fff15 	stw	r5,-4(fp)
	arith_entropy_ptr entropy = (arith_entropy_ptr) cinfo->entropy;
    1d6c:	e0bffe17 	ldw	r2,-8(fp)
    1d70:	10806417 	ldw	r2,400(r2)
    1d74:	e0bffc15 	stw	r2,-16(fp)
	int ci;
	jpeg_component_info * compptr;

	finish_pass(cinfo);
    1d78:	e13ffe17 	ldw	r4,-8(fp)
    1d7c:	00017200 	call	1720 <finish_pass>

	emit_byte(0xFF, cinfo);
    1d80:	01003fc4 	movi	r4,255
    1d84:	e17ffe17 	ldw	r5,-8(fp)
    1d88:	00016700 	call	1670 <emit_byte>
	emit_byte(JPEG_RST0 + restart_num, cinfo);
    1d8c:	e0bfff17 	ldw	r2,-4(fp)
    1d90:	10803404 	addi	r2,r2,208
    1d94:	1009883a 	mov	r4,r2
    1d98:	e17ffe17 	ldw	r5,-8(fp)
    1d9c:	00016700 	call	1670 <emit_byte>

	/* Re-initialize statistics areas */
	for (ci = 0; ci < cinfo->comps_in_scan; ci++) {
    1da0:	e03ffb15 	stw	zero,-20(fp)
    1da4:	00003a06 	br	1e90 <emit_restart+0x13c>
		compptr = cinfo->cur_comp_info[ci];
    1da8:	e0fffe17 	ldw	r3,-8(fp)
    1dac:	e0bffb17 	ldw	r2,-20(fp)
    1db0:	10801104 	addi	r2,r2,68
    1db4:	1085883a 	add	r2,r2,r2
    1db8:	1085883a 	add	r2,r2,r2
    1dbc:	1885883a 	add	r2,r3,r2
    1dc0:	10800017 	ldw	r2,0(r2)
    1dc4:	e0bffd15 	stw	r2,-12(fp)
		/* DC needs no table for refinement scan */
		if (cinfo->Ss == 0 && cinfo->Ah == 0) {
    1dc8:	e0bffe17 	ldw	r2,-8(fp)
    1dcc:	10805517 	ldw	r2,340(r2)
    1dd0:	10001d1e 	bne	r2,zero,1e48 <emit_restart+0xf4>
    1dd4:	e0bffe17 	ldw	r2,-8(fp)
    1dd8:	10805717 	ldw	r2,348(r2)
    1ddc:	10001a1e 	bne	r2,zero,1e48 <emit_restart+0xf4>
			MEMZERO(entropy->dc_stats[compptr->dc_tbl_no], DC_STAT_BINS);
    1de0:	e0bffd17 	ldw	r2,-12(fp)
    1de4:	10800517 	ldw	r2,20(r2)
    1de8:	e0fffc17 	ldw	r3,-16(fp)
    1dec:	108004c4 	addi	r2,r2,19
    1df0:	1085883a 	add	r2,r2,r2
    1df4:	1085883a 	add	r2,r2,r2
    1df8:	1885883a 	add	r2,r3,r2
    1dfc:	10800017 	ldw	r2,0(r2)
    1e00:	1009883a 	mov	r4,r2
    1e04:	000b883a 	mov	r5,zero
    1e08:	01801004 	movi	r6,64
    1e0c:	002ecd40 	call	2ecd4 <memset>
			/* Reset DC predictions to 0 */
			entropy->last_dc_val[ci] = 0;
    1e10:	e0fffc17 	ldw	r3,-16(fp)
    1e14:	e0bffb17 	ldw	r2,-20(fp)
    1e18:	10800244 	addi	r2,r2,9
    1e1c:	1085883a 	add	r2,r2,r2
    1e20:	1085883a 	add	r2,r2,r2
    1e24:	1885883a 	add	r2,r3,r2
    1e28:	10000015 	stw	zero,0(r2)
			entropy->dc_context[ci] = 0;
    1e2c:	e0fffc17 	ldw	r3,-16(fp)
    1e30:	e0bffb17 	ldw	r2,-20(fp)
    1e34:	10800344 	addi	r2,r2,13
    1e38:	1085883a 	add	r2,r2,r2
    1e3c:	1085883a 	add	r2,r2,r2
    1e40:	1885883a 	add	r2,r3,r2
    1e44:	10000015 	stw	zero,0(r2)
		}
		/* AC needs no table when not present */
		if (cinfo->Se) {
    1e48:	e0bffe17 	ldw	r2,-8(fp)
    1e4c:	10805617 	ldw	r2,344(r2)
    1e50:	10000c26 	beq	r2,zero,1e84 <emit_restart+0x130>
			MEMZERO(entropy->ac_stats[compptr->ac_tbl_no], AC_STAT_BINS);
    1e54:	e0bffd17 	ldw	r2,-12(fp)
    1e58:	10800617 	ldw	r2,24(r2)
    1e5c:	e0fffc17 	ldw	r3,-16(fp)
    1e60:	108008c4 	addi	r2,r2,35
    1e64:	1085883a 	add	r2,r2,r2
    1e68:	1085883a 	add	r2,r2,r2
    1e6c:	1885883a 	add	r2,r3,r2
    1e70:	10800017 	ldw	r2,0(r2)
    1e74:	1009883a 	mov	r4,r2
    1e78:	000b883a 	mov	r5,zero
    1e7c:	01804004 	movi	r6,256
    1e80:	002ecd40 	call	2ecd4 <memset>

	emit_byte(0xFF, cinfo);
	emit_byte(JPEG_RST0 + restart_num, cinfo);

	/* Re-initialize statistics areas */
	for (ci = 0; ci < cinfo->comps_in_scan; ci++) {
    1e84:	e0bffb17 	ldw	r2,-20(fp)
    1e88:	10800044 	addi	r2,r2,1
    1e8c:	e0bffb15 	stw	r2,-20(fp)
    1e90:	e0bffe17 	ldw	r2,-8(fp)
    1e94:	10804317 	ldw	r2,268(r2)
    1e98:	e0fffb17 	ldw	r3,-20(fp)
    1e9c:	18bfc216 	blt	r3,r2,1da8 <emit_restart+0x54>
			MEMZERO(entropy->ac_stats[compptr->ac_tbl_no], AC_STAT_BINS);
		}
	}

	/* Reset arithmetic encoding variables */
	entropy->c = 0;
    1ea0:	e0bffc17 	ldw	r2,-16(fp)
    1ea4:	10000315 	stw	zero,12(r2)
	entropy->a = 0x10000L;
    1ea8:	e0bffc17 	ldw	r2,-16(fp)
    1eac:	00c00074 	movhi	r3,1
    1eb0:	10c00415 	stw	r3,16(r2)
	entropy->sc = 0;
    1eb4:	e0bffc17 	ldw	r2,-16(fp)
    1eb8:	10000515 	stw	zero,20(r2)
	entropy->zc = 0;
    1ebc:	e0bffc17 	ldw	r2,-16(fp)
    1ec0:	10000615 	stw	zero,24(r2)
	entropy->ct = 11;
    1ec4:	e0bffc17 	ldw	r2,-16(fp)
    1ec8:	00c002c4 	movi	r3,11
    1ecc:	10c00715 	stw	r3,28(r2)
	entropy->buffer = -1;  /* empty */
    1ed0:	e0bffc17 	ldw	r2,-16(fp)
    1ed4:	00ffffc4 	movi	r3,-1
    1ed8:	10c00815 	stw	r3,32(r2)
}
    1edc:	e037883a 	mov	sp,fp
    1ee0:	dfc00117 	ldw	ra,4(sp)
    1ee4:	df000017 	ldw	fp,0(sp)
    1ee8:	dec00204 	addi	sp,sp,8
    1eec:	f800283a 	ret

00001ef0 <encode_mcu_DC_first>:
* or first pass of successive approximation).
*/

METHODDEF(boolean)
	encode_mcu_DC_first (j_compress_ptr cinfo, JBLOCKROW *MCU_data)
{
    1ef0:	defff304 	addi	sp,sp,-52
    1ef4:	dfc00c15 	stw	ra,48(sp)
    1ef8:	df000b15 	stw	fp,44(sp)
    1efc:	df000b04 	addi	fp,sp,44
    1f00:	e13ffe15 	stw	r4,-8(fp)
    1f04:	e17fff15 	stw	r5,-4(fp)
	arith_entropy_ptr entropy = (arith_entropy_ptr) cinfo->entropy;
    1f08:	e0bffe17 	ldw	r2,-8(fp)
    1f0c:	10806417 	ldw	r2,400(r2)
    1f10:	e0bffa15 	stw	r2,-24(fp)
	int blkn, ci, tbl;
	int v, v2, m;
	ISHIFT_TEMPS

		/* Emit restart marker if needed */
		if (cinfo->restart_interval) {
    1f14:	e0bffe17 	ldw	r2,-8(fp)
    1f18:	10803717 	ldw	r2,220(r2)
    1f1c:	10001b26 	beq	r2,zero,1f8c <encode_mcu_DC_first+0x9c>
			if (entropy->restarts_to_go == 0) {
    1f20:	e0bffa17 	ldw	r2,-24(fp)
    1f24:	10801117 	ldw	r2,68(r2)
    1f28:	1000131e 	bne	r2,zero,1f78 <encode_mcu_DC_first+0x88>
				emit_restart(cinfo, entropy->next_restart_num);
    1f2c:	e0bffa17 	ldw	r2,-24(fp)
    1f30:	10801217 	ldw	r2,72(r2)
    1f34:	e13ffe17 	ldw	r4,-8(fp)
    1f38:	100b883a 	mov	r5,r2
    1f3c:	0001d540 	call	1d54 <emit_restart>
				entropy->restarts_to_go = cinfo->restart_interval;
    1f40:	e0bffe17 	ldw	r2,-8(fp)
    1f44:	10c03717 	ldw	r3,220(r2)
    1f48:	e0bffa17 	ldw	r2,-24(fp)
    1f4c:	10c01115 	stw	r3,68(r2)
				entropy->next_restart_num++;
    1f50:	e0bffa17 	ldw	r2,-24(fp)
    1f54:	10801217 	ldw	r2,72(r2)
    1f58:	10c00044 	addi	r3,r2,1
    1f5c:	e0bffa17 	ldw	r2,-24(fp)
    1f60:	10c01215 	stw	r3,72(r2)
				entropy->next_restart_num &= 7;
    1f64:	e0bffa17 	ldw	r2,-24(fp)
    1f68:	10801217 	ldw	r2,72(r2)
    1f6c:	10c001cc 	andi	r3,r2,7
    1f70:	e0bffa17 	ldw	r2,-24(fp)
    1f74:	10c01215 	stw	r3,72(r2)
			}
			entropy->restarts_to_go--;
    1f78:	e0bffa17 	ldw	r2,-24(fp)
    1f7c:	10801117 	ldw	r2,68(r2)
    1f80:	10ffffc4 	addi	r3,r2,-1
    1f84:	e0bffa17 	ldw	r2,-24(fp)
    1f88:	10c01115 	stw	r3,68(r2)
		}

		/* Encode the MCU data blocks */
		for (blkn = 0; blkn < cinfo->blocks_in_MCU; blkn++) {
    1f8c:	e03ff615 	stw	zero,-40(fp)
    1f90:	0000ea06 	br	233c <encode_mcu_DC_first+0x44c>
			block = MCU_data[blkn];
    1f94:	e0bff617 	ldw	r2,-40(fp)
    1f98:	1085883a 	add	r2,r2,r2
    1f9c:	1085883a 	add	r2,r2,r2
    1fa0:	e0ffff17 	ldw	r3,-4(fp)
    1fa4:	1885883a 	add	r2,r3,r2
    1fa8:	10800017 	ldw	r2,0(r2)
    1fac:	e0bffb15 	stw	r2,-20(fp)
			ci = cinfo->MCU_membership[blkn];
    1fb0:	e0fffe17 	ldw	r3,-8(fp)
    1fb4:	e0bff617 	ldw	r2,-40(fp)
    1fb8:	108012c4 	addi	r2,r2,75
    1fbc:	1085883a 	add	r2,r2,r2
    1fc0:	1085883a 	add	r2,r2,r2
    1fc4:	1885883a 	add	r2,r3,r2
    1fc8:	10800017 	ldw	r2,0(r2)
    1fcc:	e0bffc15 	stw	r2,-16(fp)
			tbl = cinfo->cur_comp_info[ci]->dc_tbl_no;
    1fd0:	e0fffe17 	ldw	r3,-8(fp)
    1fd4:	e0bffc17 	ldw	r2,-16(fp)
    1fd8:	10801104 	addi	r2,r2,68
    1fdc:	1085883a 	add	r2,r2,r2
    1fe0:	1085883a 	add	r2,r2,r2
    1fe4:	1885883a 	add	r2,r3,r2
    1fe8:	10800017 	ldw	r2,0(r2)
    1fec:	10800517 	ldw	r2,20(r2)
    1ff0:	e0bffd15 	stw	r2,-12(fp)

			/* Compute the DC value after the required point transform by Al.
			* This is simply an arithmetic right shift.
			*/
			m = IRIGHT_SHIFT((int) ((*block)[0]), cinfo->Al);
    1ff4:	e0bffb17 	ldw	r2,-20(fp)
    1ff8:	1080000b 	ldhu	r2,0(r2)
    1ffc:	10ffffcc 	andi	r3,r2,65535
    2000:	18e0001c 	xori	r3,r3,32768
    2004:	18e00004 	addi	r3,r3,-32768
    2008:	e0bffe17 	ldw	r2,-8(fp)
    200c:	10805817 	ldw	r2,352(r2)
    2010:	1885d83a 	sra	r2,r3,r2
    2014:	e0bff915 	stw	r2,-28(fp)

			/* Sections F.1.4.1 & F.1.4.4.1: Encoding of DC coefficients */

			/* Table F.4: Point to statistics bin S0 for DC coefficient coding */
			st = entropy->dc_stats[tbl] + entropy->dc_context[ci];
    2018:	e0fffa17 	ldw	r3,-24(fp)
    201c:	e0bffd17 	ldw	r2,-12(fp)
    2020:	108004c4 	addi	r2,r2,19
    2024:	1085883a 	add	r2,r2,r2
    2028:	1085883a 	add	r2,r2,r2
    202c:	1885883a 	add	r2,r3,r2
    2030:	10c00017 	ldw	r3,0(r2)
    2034:	e13ffa17 	ldw	r4,-24(fp)
    2038:	e0bffc17 	ldw	r2,-16(fp)
    203c:	10800344 	addi	r2,r2,13
    2040:	1085883a 	add	r2,r2,r2
    2044:	1085883a 	add	r2,r2,r2
    2048:	2085883a 	add	r2,r4,r2
    204c:	10800017 	ldw	r2,0(r2)
    2050:	1885883a 	add	r2,r3,r2
    2054:	e0bff515 	stw	r2,-44(fp)

			/* Figure F.4: Encode_DC_DIFF */
			if ((v = m - entropy->last_dc_val[ci]) == 0) {
    2058:	e0fffa17 	ldw	r3,-24(fp)
    205c:	e0bffc17 	ldw	r2,-16(fp)
    2060:	10800244 	addi	r2,r2,9
    2064:	1085883a 	add	r2,r2,r2
    2068:	1085883a 	add	r2,r2,r2
    206c:	1885883a 	add	r2,r3,r2
    2070:	10800017 	ldw	r2,0(r2)
    2074:	e0fff917 	ldw	r3,-28(fp)
    2078:	1885c83a 	sub	r2,r3,r2
    207c:	e0bff715 	stw	r2,-36(fp)
    2080:	e0bff717 	ldw	r2,-36(fp)
    2084:	10000c1e 	bne	r2,zero,20b8 <encode_mcu_DC_first+0x1c8>
				arith_encode(cinfo, st, 0);
    2088:	e13ffe17 	ldw	r4,-8(fp)
    208c:	e17ff517 	ldw	r5,-44(fp)
    2090:	000d883a 	mov	r6,zero
    2094:	0001a540 	call	1a54 <arith_encode>
				entropy->dc_context[ci] = 0;	/* zero diff category */
    2098:	e0fffa17 	ldw	r3,-24(fp)
    209c:	e0bffc17 	ldw	r2,-16(fp)
    20a0:	10800344 	addi	r2,r2,13
    20a4:	1085883a 	add	r2,r2,r2
    20a8:	1085883a 	add	r2,r2,r2
    20ac:	1885883a 	add	r2,r3,r2
    20b0:	10000015 	stw	zero,0(r2)
    20b4:	00009e06 	br	2330 <encode_mcu_DC_first+0x440>
			} else {
				entropy->last_dc_val[ci] = m;
    20b8:	e0fffa17 	ldw	r3,-24(fp)
    20bc:	e0bffc17 	ldw	r2,-16(fp)
    20c0:	10800244 	addi	r2,r2,9
    20c4:	1085883a 	add	r2,r2,r2
    20c8:	1085883a 	add	r2,r2,r2
    20cc:	1885883a 	add	r2,r3,r2
    20d0:	e0fff917 	ldw	r3,-28(fp)
    20d4:	10c00015 	stw	r3,0(r2)
				arith_encode(cinfo, st, 1);
    20d8:	e13ffe17 	ldw	r4,-8(fp)
    20dc:	e17ff517 	ldw	r5,-44(fp)
    20e0:	01800044 	movi	r6,1
    20e4:	0001a540 	call	1a54 <arith_encode>
				/* Figure F.6: Encoding nonzero value v */
				/* Figure F.7: Encoding the sign of v */
				if (v > 0) {
    20e8:	e0bff717 	ldw	r2,-36(fp)
    20ec:	0080120e 	bge	zero,r2,2138 <encode_mcu_DC_first+0x248>
					arith_encode(cinfo, st + 1, 0);	/* Table F.4: SS = S0 + 1 */
    20f0:	e0bff517 	ldw	r2,-44(fp)
    20f4:	10800044 	addi	r2,r2,1
    20f8:	e13ffe17 	ldw	r4,-8(fp)
    20fc:	100b883a 	mov	r5,r2
    2100:	000d883a 	mov	r6,zero
    2104:	0001a540 	call	1a54 <arith_encode>
					st += 2;			/* Table F.4: SP = S0 + 2 */
    2108:	e0bff517 	ldw	r2,-44(fp)
    210c:	10800084 	addi	r2,r2,2
    2110:	e0bff515 	stw	r2,-44(fp)
					entropy->dc_context[ci] = 4;	/* small positive diff category */
    2114:	e0fffa17 	ldw	r3,-24(fp)
    2118:	e0bffc17 	ldw	r2,-16(fp)
    211c:	10800344 	addi	r2,r2,13
    2120:	1085883a 	add	r2,r2,r2
    2124:	1085883a 	add	r2,r2,r2
    2128:	1885883a 	add	r2,r3,r2
    212c:	00c00104 	movi	r3,4
    2130:	10c00015 	stw	r3,0(r2)
    2134:	00001406 	br	2188 <encode_mcu_DC_first+0x298>
				} else {
					v = -v;
    2138:	e0bff717 	ldw	r2,-36(fp)
    213c:	0085c83a 	sub	r2,zero,r2
    2140:	e0bff715 	stw	r2,-36(fp)
					arith_encode(cinfo, st + 1, 1);	/* Table F.4: SS = S0 + 1 */
    2144:	e0bff517 	ldw	r2,-44(fp)
    2148:	10800044 	addi	r2,r2,1
    214c:	e13ffe17 	ldw	r4,-8(fp)
    2150:	100b883a 	mov	r5,r2
    2154:	01800044 	movi	r6,1
    2158:	0001a540 	call	1a54 <arith_encode>
					st += 3;			/* Table F.4: SN = S0 + 3 */
    215c:	e0bff517 	ldw	r2,-44(fp)
    2160:	108000c4 	addi	r2,r2,3
    2164:	e0bff515 	stw	r2,-44(fp)
					entropy->dc_context[ci] = 8;	/* small negative diff category */
    2168:	e0fffa17 	ldw	r3,-24(fp)
    216c:	e0bffc17 	ldw	r2,-16(fp)
    2170:	10800344 	addi	r2,r2,13
    2174:	1085883a 	add	r2,r2,r2
    2178:	1085883a 	add	r2,r2,r2
    217c:	1885883a 	add	r2,r3,r2
    2180:	00c00204 	movi	r3,8
    2184:	10c00015 	stw	r3,0(r2)
				}
				/* Figure F.8: Encoding the magnitude category of v */
				m = 0;
    2188:	e03ff915 	stw	zero,-28(fp)
				if (v -= 1) {
    218c:	e0bff717 	ldw	r2,-36(fp)
    2190:	10bfffc4 	addi	r2,r2,-1
    2194:	e0bff715 	stw	r2,-36(fp)
    2198:	e0bff717 	ldw	r2,-36(fp)
    219c:	10002126 	beq	r2,zero,2224 <encode_mcu_DC_first+0x334>
					arith_encode(cinfo, st, 1);
    21a0:	e13ffe17 	ldw	r4,-8(fp)
    21a4:	e17ff517 	ldw	r5,-44(fp)
    21a8:	01800044 	movi	r6,1
    21ac:	0001a540 	call	1a54 <arith_encode>
					m = 1;
    21b0:	00800044 	movi	r2,1
    21b4:	e0bff915 	stw	r2,-28(fp)
					v2 = v;
    21b8:	e0bff717 	ldw	r2,-36(fp)
    21bc:	e0bff815 	stw	r2,-32(fp)
					st = entropy->dc_stats[tbl] + 20; /* Table F.4: X1 = 20 */
    21c0:	e0fffa17 	ldw	r3,-24(fp)
    21c4:	e0bffd17 	ldw	r2,-12(fp)
    21c8:	108004c4 	addi	r2,r2,19
    21cc:	1085883a 	add	r2,r2,r2
    21d0:	1085883a 	add	r2,r2,r2
    21d4:	1885883a 	add	r2,r3,r2
    21d8:	10800017 	ldw	r2,0(r2)
    21dc:	10800504 	addi	r2,r2,20
    21e0:	e0bff515 	stw	r2,-44(fp)
					while (v2 >>= 1) {
    21e4:	00000a06 	br	2210 <encode_mcu_DC_first+0x320>
						arith_encode(cinfo, st, 1);
    21e8:	e13ffe17 	ldw	r4,-8(fp)
    21ec:	e17ff517 	ldw	r5,-44(fp)
    21f0:	01800044 	movi	r6,1
    21f4:	0001a540 	call	1a54 <arith_encode>
						m <<= 1;
    21f8:	e0bff917 	ldw	r2,-28(fp)
    21fc:	1085883a 	add	r2,r2,r2
    2200:	e0bff915 	stw	r2,-28(fp)
						st += 1;
    2204:	e0bff517 	ldw	r2,-44(fp)
    2208:	10800044 	addi	r2,r2,1
    220c:	e0bff515 	stw	r2,-44(fp)
				if (v -= 1) {
					arith_encode(cinfo, st, 1);
					m = 1;
					v2 = v;
					st = entropy->dc_stats[tbl] + 20; /* Table F.4: X1 = 20 */
					while (v2 >>= 1) {
    2210:	e0bff817 	ldw	r2,-32(fp)
    2214:	1005d07a 	srai	r2,r2,1
    2218:	e0bff815 	stw	r2,-32(fp)
    221c:	e0bff817 	ldw	r2,-32(fp)
    2220:	103ff11e 	bne	r2,zero,21e8 <encode_mcu_DC_first+0x2f8>
						arith_encode(cinfo, st, 1);
						m <<= 1;
						st += 1;
					}
				}
				arith_encode(cinfo, st, 0);
    2224:	e13ffe17 	ldw	r4,-8(fp)
    2228:	e17ff517 	ldw	r5,-44(fp)
    222c:	000d883a 	mov	r6,zero
    2230:	0001a540 	call	1a54 <arith_encode>
				/* Section F.1.4.4.1.2: Establish dc_context conditioning category */
				if (m < (int) ((1L << cinfo->arith_dc_L[tbl]) >> 1))
    2234:	e0fffe17 	ldw	r3,-8(fp)
    2238:	e0bffd17 	ldw	r2,-12(fp)
    223c:	1885883a 	add	r2,r3,r2
    2240:	10802504 	addi	r2,r2,148
    2244:	10800003 	ldbu	r2,0(r2)
    2248:	10803fcc 	andi	r2,r2,255
    224c:	00c00044 	movi	r3,1
    2250:	1884983a 	sll	r2,r3,r2
    2254:	1005d07a 	srai	r2,r2,1
    2258:	e0fff917 	ldw	r3,-28(fp)
    225c:	1880080e 	bge	r3,r2,2280 <encode_mcu_DC_first+0x390>
					entropy->dc_context[ci] = 0;	/* zero diff category */
    2260:	e0fffa17 	ldw	r3,-24(fp)
    2264:	e0bffc17 	ldw	r2,-16(fp)
    2268:	10800344 	addi	r2,r2,13
    226c:	1085883a 	add	r2,r2,r2
    2270:	1085883a 	add	r2,r2,r2
    2274:	1885883a 	add	r2,r3,r2
    2278:	10000015 	stw	zero,0(r2)
    227c:	00001a06 	br	22e8 <encode_mcu_DC_first+0x3f8>
				else if (m > (int) ((1L << cinfo->arith_dc_U[tbl]) >> 1))
    2280:	e0fffe17 	ldw	r3,-8(fp)
    2284:	e0bffd17 	ldw	r2,-12(fp)
    2288:	1885883a 	add	r2,r3,r2
    228c:	10802904 	addi	r2,r2,164
    2290:	10800003 	ldbu	r2,0(r2)
    2294:	10803fcc 	andi	r2,r2,255
    2298:	00c00044 	movi	r3,1
    229c:	1884983a 	sll	r2,r3,r2
    22a0:	1007d07a 	srai	r3,r2,1
    22a4:	e0bff917 	ldw	r2,-28(fp)
    22a8:	18800f0e 	bge	r3,r2,22e8 <encode_mcu_DC_first+0x3f8>
					entropy->dc_context[ci] += 8;	/* large diff category */
    22ac:	e0fffa17 	ldw	r3,-24(fp)
    22b0:	e0bffc17 	ldw	r2,-16(fp)
    22b4:	10800344 	addi	r2,r2,13
    22b8:	1085883a 	add	r2,r2,r2
    22bc:	1085883a 	add	r2,r2,r2
    22c0:	1885883a 	add	r2,r3,r2
    22c4:	10800017 	ldw	r2,0(r2)
    22c8:	10c00204 	addi	r3,r2,8
    22cc:	e13ffa17 	ldw	r4,-24(fp)
    22d0:	e0bffc17 	ldw	r2,-16(fp)
    22d4:	10800344 	addi	r2,r2,13
    22d8:	1085883a 	add	r2,r2,r2
    22dc:	1085883a 	add	r2,r2,r2
    22e0:	2085883a 	add	r2,r4,r2
    22e4:	10c00015 	stw	r3,0(r2)
				/* Figure F.9: Encoding the magnitude bit pattern of v */
				st += 14;
    22e8:	e0bff517 	ldw	r2,-44(fp)
    22ec:	10800384 	addi	r2,r2,14
    22f0:	e0bff515 	stw	r2,-44(fp)
				while (m >>= 1)
    22f4:	00000906 	br	231c <encode_mcu_DC_first+0x42c>
					arith_encode(cinfo, st, (m & v) ? 1 : 0);
    22f8:	e0fff917 	ldw	r3,-28(fp)
    22fc:	e0bff717 	ldw	r2,-36(fp)
    2300:	1884703a 	and	r2,r3,r2
    2304:	1004c03a 	cmpne	r2,r2,zero
    2308:	10803fcc 	andi	r2,r2,255
    230c:	e13ffe17 	ldw	r4,-8(fp)
    2310:	e17ff517 	ldw	r5,-44(fp)
    2314:	100d883a 	mov	r6,r2
    2318:	0001a540 	call	1a54 <arith_encode>
					entropy->dc_context[ci] = 0;	/* zero diff category */
				else if (m > (int) ((1L << cinfo->arith_dc_U[tbl]) >> 1))
					entropy->dc_context[ci] += 8;	/* large diff category */
				/* Figure F.9: Encoding the magnitude bit pattern of v */
				st += 14;
				while (m >>= 1)
    231c:	e0bff917 	ldw	r2,-28(fp)
    2320:	1005d07a 	srai	r2,r2,1
    2324:	e0bff915 	stw	r2,-28(fp)
    2328:	e0bff917 	ldw	r2,-28(fp)
    232c:	103ff21e 	bne	r2,zero,22f8 <encode_mcu_DC_first+0x408>
			}
			entropy->restarts_to_go--;
		}

		/* Encode the MCU data blocks */
		for (blkn = 0; blkn < cinfo->blocks_in_MCU; blkn++) {
    2330:	e0bff617 	ldw	r2,-40(fp)
    2334:	10800044 	addi	r2,r2,1
    2338:	e0bff615 	stw	r2,-40(fp)
    233c:	e0bffe17 	ldw	r2,-8(fp)
    2340:	10804a17 	ldw	r2,296(r2)
    2344:	e0fff617 	ldw	r3,-40(fp)
    2348:	18bf1216 	blt	r3,r2,1f94 <encode_mcu_DC_first+0xa4>
				while (m >>= 1)
					arith_encode(cinfo, st, (m & v) ? 1 : 0);
			}
		}

		return TRUE;
    234c:	00800044 	movi	r2,1
}
    2350:	e037883a 	mov	sp,fp
    2354:	dfc00117 	ldw	ra,4(sp)
    2358:	df000017 	ldw	fp,0(sp)
    235c:	dec00204 	addi	sp,sp,8
    2360:	f800283a 	ret

00002364 <encode_mcu_AC_first>:
* or first pass of successive approximation).
*/

METHODDEF(boolean)
	encode_mcu_AC_first (j_compress_ptr cinfo, JBLOCKROW *MCU_data)
{
    2364:	defff204 	addi	sp,sp,-56
    2368:	dfc00d15 	stw	ra,52(sp)
    236c:	df000c15 	stw	fp,48(sp)
    2370:	df000c04 	addi	fp,sp,48
    2374:	e13ffe15 	stw	r4,-8(fp)
    2378:	e17fff15 	stw	r5,-4(fp)
	arith_entropy_ptr entropy = (arith_entropy_ptr) cinfo->entropy;
    237c:	e0bffe17 	ldw	r2,-8(fp)
    2380:	10806417 	ldw	r2,400(r2)
    2384:	e0bffa15 	stw	r2,-24(fp)
	int tbl, k, ke;
	int v, v2, m;
	const int * natural_order;

	/* Emit restart marker if needed */
	if (cinfo->restart_interval) {
    2388:	e0bffe17 	ldw	r2,-8(fp)
    238c:	10803717 	ldw	r2,220(r2)
    2390:	10001b26 	beq	r2,zero,2400 <encode_mcu_AC_first+0x9c>
		if (entropy->restarts_to_go == 0) {
    2394:	e0bffa17 	ldw	r2,-24(fp)
    2398:	10801117 	ldw	r2,68(r2)
    239c:	1000131e 	bne	r2,zero,23ec <encode_mcu_AC_first+0x88>
			emit_restart(cinfo, entropy->next_restart_num);
    23a0:	e0bffa17 	ldw	r2,-24(fp)
    23a4:	10801217 	ldw	r2,72(r2)
    23a8:	e13ffe17 	ldw	r4,-8(fp)
    23ac:	100b883a 	mov	r5,r2
    23b0:	0001d540 	call	1d54 <emit_restart>
			entropy->restarts_to_go = cinfo->restart_interval;
    23b4:	e0bffe17 	ldw	r2,-8(fp)
    23b8:	10c03717 	ldw	r3,220(r2)
    23bc:	e0bffa17 	ldw	r2,-24(fp)
    23c0:	10c01115 	stw	r3,68(r2)
			entropy->next_restart_num++;
    23c4:	e0bffa17 	ldw	r2,-24(fp)
    23c8:	10801217 	ldw	r2,72(r2)
    23cc:	10c00044 	addi	r3,r2,1
    23d0:	e0bffa17 	ldw	r2,-24(fp)
    23d4:	10c01215 	stw	r3,72(r2)
			entropy->next_restart_num &= 7;
    23d8:	e0bffa17 	ldw	r2,-24(fp)
    23dc:	10801217 	ldw	r2,72(r2)
    23e0:	10c001cc 	andi	r3,r2,7
    23e4:	e0bffa17 	ldw	r2,-24(fp)
    23e8:	10c01215 	stw	r3,72(r2)
		}
		entropy->restarts_to_go--;
    23ec:	e0bffa17 	ldw	r2,-24(fp)
    23f0:	10801117 	ldw	r2,68(r2)
    23f4:	10ffffc4 	addi	r3,r2,-1
    23f8:	e0bffa17 	ldw	r2,-24(fp)
    23fc:	10c01115 	stw	r3,68(r2)
	}

	natural_order = cinfo->natural_order;
    2400:	e0bffe17 	ldw	r2,-8(fp)
    2404:	10805a17 	ldw	r2,360(r2)
    2408:	e0bffb15 	stw	r2,-20(fp)

	/* Encode the MCU data block */
	block = MCU_data[0];
    240c:	e0bfff17 	ldw	r2,-4(fp)
    2410:	10800017 	ldw	r2,0(r2)
    2414:	e0bffc15 	stw	r2,-16(fp)
	tbl = cinfo->cur_comp_info[0]->ac_tbl_no;
    2418:	e0bffe17 	ldw	r2,-8(fp)
    241c:	10804417 	ldw	r2,272(r2)
    2420:	10800617 	ldw	r2,24(r2)
    2424:	e0bffd15 	stw	r2,-12(fp)

	/* Sections F.1.4.2 & F.1.4.4.2: Encoding of AC coefficients */

	/* Establish EOB (end-of-block) index */
	for (ke = cinfo->Se; ke > 0; ke--)
    2428:	e0bffe17 	ldw	r2,-8(fp)
    242c:	10805617 	ldw	r2,344(r2)
    2430:	e0bff615 	stw	r2,-40(fp)
    2434:	00002506 	br	24cc <encode_mcu_AC_first+0x168>
		/* We must apply the point transform by Al.  For AC coefficients this
		* is an integer division with rounding towards 0.  To do this portably
		* in C, we shift after obtaining the absolute value.
		*/
		if ((v = (*block)[natural_order[ke]]) >= 0) {
    2438:	e0bff617 	ldw	r2,-40(fp)
    243c:	1085883a 	add	r2,r2,r2
    2440:	1085883a 	add	r2,r2,r2
    2444:	e0fffb17 	ldw	r3,-20(fp)
    2448:	1885883a 	add	r2,r3,r2
    244c:	10800017 	ldw	r2,0(r2)
    2450:	e0fffc17 	ldw	r3,-16(fp)
    2454:	1085883a 	add	r2,r2,r2
    2458:	1885883a 	add	r2,r3,r2
    245c:	1080000b 	ldhu	r2,0(r2)
    2460:	10bfffcc 	andi	r2,r2,65535
    2464:	10a0001c 	xori	r2,r2,32768
    2468:	10a00004 	addi	r2,r2,-32768
    246c:	e0bff715 	stw	r2,-36(fp)
    2470:	e0bff717 	ldw	r2,-36(fp)
    2474:	10000816 	blt	r2,zero,2498 <encode_mcu_AC_first+0x134>
			if (v >>= cinfo->Al) break;
    2478:	e0bffe17 	ldw	r2,-8(fp)
    247c:	10805817 	ldw	r2,352(r2)
    2480:	e0fff717 	ldw	r3,-36(fp)
    2484:	1885d83a 	sra	r2,r3,r2
    2488:	e0bff715 	stw	r2,-36(fp)
    248c:	e0bff717 	ldw	r2,-36(fp)
    2490:	10000b26 	beq	r2,zero,24c0 <encode_mcu_AC_first+0x15c>
    2494:	00001106 	br	24dc <encode_mcu_AC_first+0x178>
		} else {
			v = -v;
    2498:	e0bff717 	ldw	r2,-36(fp)
    249c:	0085c83a 	sub	r2,zero,r2
    24a0:	e0bff715 	stw	r2,-36(fp)
			if (v >>= cinfo->Al) break;
    24a4:	e0bffe17 	ldw	r2,-8(fp)
    24a8:	10805817 	ldw	r2,352(r2)
    24ac:	e0fff717 	ldw	r3,-36(fp)
    24b0:	1885d83a 	sra	r2,r3,r2
    24b4:	e0bff715 	stw	r2,-36(fp)
    24b8:	e0bff717 	ldw	r2,-36(fp)
    24bc:	1000061e 	bne	r2,zero,24d8 <encode_mcu_AC_first+0x174>
	tbl = cinfo->cur_comp_info[0]->ac_tbl_no;

	/* Sections F.1.4.2 & F.1.4.4.2: Encoding of AC coefficients */

	/* Establish EOB (end-of-block) index */
	for (ke = cinfo->Se; ke > 0; ke--)
    24c0:	e0bff617 	ldw	r2,-40(fp)
    24c4:	10bfffc4 	addi	r2,r2,-1
    24c8:	e0bff615 	stw	r2,-40(fp)
    24cc:	e0bff617 	ldw	r2,-40(fp)
    24d0:	00bfd916 	blt	zero,r2,2438 <encode_mcu_AC_first+0xd4>
    24d4:	00000106 	br	24dc <encode_mcu_AC_first+0x178>
		*/
		if ((v = (*block)[natural_order[ke]]) >= 0) {
			if (v >>= cinfo->Al) break;
		} else {
			v = -v;
			if (v >>= cinfo->Al) break;
    24d8:	0001883a 	nop
		}

		/* Figure F.5: Encode_AC_Coefficients */
		for (k = cinfo->Ss; k <= ke; k++) {
    24dc:	e0bffe17 	ldw	r2,-8(fp)
    24e0:	10805517 	ldw	r2,340(r2)
    24e4:	e0bff515 	stw	r2,-44(fp)
    24e8:	0000b406 	br	27bc <encode_mcu_AC_first+0x458>
			st = entropy->ac_stats[tbl] + 3 * (k - 1);
    24ec:	e0fffa17 	ldw	r3,-24(fp)
    24f0:	e0bffd17 	ldw	r2,-12(fp)
    24f4:	108008c4 	addi	r2,r2,35
    24f8:	1085883a 	add	r2,r2,r2
    24fc:	1085883a 	add	r2,r2,r2
    2500:	1885883a 	add	r2,r3,r2
    2504:	11000017 	ldw	r4,0(r2)
    2508:	e0bff517 	ldw	r2,-44(fp)
    250c:	10ffffc4 	addi	r3,r2,-1
    2510:	1805883a 	mov	r2,r3
    2514:	1085883a 	add	r2,r2,r2
    2518:	10c5883a 	add	r2,r2,r3
    251c:	2085883a 	add	r2,r4,r2
    2520:	e0bff415 	stw	r2,-48(fp)
			arith_encode(cinfo, st, 0);		/* EOB decision */
    2524:	e13ffe17 	ldw	r4,-8(fp)
    2528:	e17ff417 	ldw	r5,-48(fp)
    252c:	000d883a 	mov	r6,zero
    2530:	0001a540 	call	1a54 <arith_encode>
			for (;;) {
				if ((v = (*block)[natural_order[k]]) >= 0) {
    2534:	e0bff517 	ldw	r2,-44(fp)
    2538:	1085883a 	add	r2,r2,r2
    253c:	1085883a 	add	r2,r2,r2
    2540:	e0fffb17 	ldw	r3,-20(fp)
    2544:	1885883a 	add	r2,r3,r2
    2548:	10800017 	ldw	r2,0(r2)
    254c:	e0fffc17 	ldw	r3,-16(fp)
    2550:	1085883a 	add	r2,r2,r2
    2554:	1885883a 	add	r2,r3,r2
    2558:	1080000b 	ldhu	r2,0(r2)
    255c:	10bfffcc 	andi	r2,r2,65535
    2560:	10a0001c 	xori	r2,r2,32768
    2564:	10a00004 	addi	r2,r2,-32768
    2568:	e0bff715 	stw	r2,-36(fp)
    256c:	e0bff717 	ldw	r2,-36(fp)
    2570:	10001416 	blt	r2,zero,25c4 <encode_mcu_AC_first+0x260>
					if (v >>= cinfo->Al) {
    2574:	e0bffe17 	ldw	r2,-8(fp)
    2578:	10805817 	ldw	r2,352(r2)
    257c:	e0fff717 	ldw	r3,-36(fp)
    2580:	1885d83a 	sra	r2,r3,r2
    2584:	e0bff715 	stw	r2,-36(fp)
    2588:	e0bff717 	ldw	r2,-36(fp)
    258c:	10002426 	beq	r2,zero,2620 <encode_mcu_AC_first+0x2bc>
						arith_encode(cinfo, st + 1, 1);
    2590:	e0bff417 	ldw	r2,-48(fp)
    2594:	10800044 	addi	r2,r2,1
    2598:	e13ffe17 	ldw	r4,-8(fp)
    259c:	100b883a 	mov	r5,r2
    25a0:	01800044 	movi	r6,1
    25a4:	0001a540 	call	1a54 <arith_encode>
						arith_encode(cinfo, entropy->fixed_bin, 0);
    25a8:	e0bffa17 	ldw	r2,-24(fp)
    25ac:	10803304 	addi	r2,r2,204
    25b0:	e13ffe17 	ldw	r4,-8(fp)
    25b4:	100b883a 	mov	r5,r2
    25b8:	000d883a 	mov	r6,zero
    25bc:	0001a540 	call	1a54 <arith_encode>
						break;
    25c0:	00002406 	br	2654 <encode_mcu_AC_first+0x2f0>
					}
				} else {
					v = -v;
    25c4:	e0bff717 	ldw	r2,-36(fp)
    25c8:	0085c83a 	sub	r2,zero,r2
    25cc:	e0bff715 	stw	r2,-36(fp)
					if (v >>= cinfo->Al) {
    25d0:	e0bffe17 	ldw	r2,-8(fp)
    25d4:	10805817 	ldw	r2,352(r2)
    25d8:	e0fff717 	ldw	r3,-36(fp)
    25dc:	1885d83a 	sra	r2,r3,r2
    25e0:	e0bff715 	stw	r2,-36(fp)
    25e4:	e0bff717 	ldw	r2,-36(fp)
    25e8:	10000d26 	beq	r2,zero,2620 <encode_mcu_AC_first+0x2bc>
						arith_encode(cinfo, st + 1, 1);
    25ec:	e0bff417 	ldw	r2,-48(fp)
    25f0:	10800044 	addi	r2,r2,1
    25f4:	e13ffe17 	ldw	r4,-8(fp)
    25f8:	100b883a 	mov	r5,r2
    25fc:	01800044 	movi	r6,1
    2600:	0001a540 	call	1a54 <arith_encode>
						arith_encode(cinfo, entropy->fixed_bin, 1);
    2604:	e0bffa17 	ldw	r2,-24(fp)
    2608:	10803304 	addi	r2,r2,204
    260c:	e13ffe17 	ldw	r4,-8(fp)
    2610:	100b883a 	mov	r5,r2
    2614:	01800044 	movi	r6,1
    2618:	0001a540 	call	1a54 <arith_encode>
						break;
    261c:	00000d06 	br	2654 <encode_mcu_AC_first+0x2f0>
					}
				}
				arith_encode(cinfo, st + 1, 0); st += 3; k++;
    2620:	e0bff417 	ldw	r2,-48(fp)
    2624:	10800044 	addi	r2,r2,1
    2628:	e13ffe17 	ldw	r4,-8(fp)
    262c:	100b883a 	mov	r5,r2
    2630:	000d883a 	mov	r6,zero
    2634:	0001a540 	call	1a54 <arith_encode>
    2638:	e0bff417 	ldw	r2,-48(fp)
    263c:	108000c4 	addi	r2,r2,3
    2640:	e0bff415 	stw	r2,-48(fp)
    2644:	e0bff517 	ldw	r2,-44(fp)
    2648:	10800044 	addi	r2,r2,1
    264c:	e0bff515 	stw	r2,-44(fp)
			}
    2650:	003fb806 	br	2534 <encode_mcu_AC_first+0x1d0>
			st += 2;
    2654:	e0bff417 	ldw	r2,-48(fp)
    2658:	10800084 	addi	r2,r2,2
    265c:	e0bff415 	stw	r2,-48(fp)
			/* Figure F.8: Encoding the magnitude category of v */
			m = 0;
    2660:	e03ff915 	stw	zero,-28(fp)
			if (v -= 1) {
    2664:	e0bff717 	ldw	r2,-36(fp)
    2668:	10bfffc4 	addi	r2,r2,-1
    266c:	e0bff715 	stw	r2,-36(fp)
    2670:	e0bff717 	ldw	r2,-36(fp)
    2674:	10003826 	beq	r2,zero,2758 <encode_mcu_AC_first+0x3f4>
				arith_encode(cinfo, st, 1);
    2678:	e13ffe17 	ldw	r4,-8(fp)
    267c:	e17ff417 	ldw	r5,-48(fp)
    2680:	01800044 	movi	r6,1
    2684:	0001a540 	call	1a54 <arith_encode>
				m = 1;
    2688:	00800044 	movi	r2,1
    268c:	e0bff915 	stw	r2,-28(fp)
				v2 = v;
    2690:	e0bff717 	ldw	r2,-36(fp)
    2694:	e0bff815 	stw	r2,-32(fp)
				if (v2 >>= 1) {
    2698:	e0bff817 	ldw	r2,-32(fp)
    269c:	1005d07a 	srai	r2,r2,1
    26a0:	e0bff815 	stw	r2,-32(fp)
    26a4:	e0bff817 	ldw	r2,-32(fp)
    26a8:	10002b26 	beq	r2,zero,2758 <encode_mcu_AC_first+0x3f4>
					arith_encode(cinfo, st, 1);
    26ac:	e13ffe17 	ldw	r4,-8(fp)
    26b0:	e17ff417 	ldw	r5,-48(fp)
    26b4:	01800044 	movi	r6,1
    26b8:	0001a540 	call	1a54 <arith_encode>
					m <<= 1;
    26bc:	e0bff917 	ldw	r2,-28(fp)
    26c0:	1085883a 	add	r2,r2,r2
    26c4:	e0bff915 	stw	r2,-28(fp)
					st = entropy->ac_stats[tbl] +
    26c8:	e0fffa17 	ldw	r3,-24(fp)
    26cc:	e0bffd17 	ldw	r2,-12(fp)
    26d0:	108008c4 	addi	r2,r2,35
    26d4:	1085883a 	add	r2,r2,r2
    26d8:	1085883a 	add	r2,r2,r2
    26dc:	1885883a 	add	r2,r3,r2
    26e0:	10c00017 	ldw	r3,0(r2)
						(k <= cinfo->arith_ac_K[tbl] ? 189 : 217);
    26e4:	e13ffe17 	ldw	r4,-8(fp)
    26e8:	e0bffd17 	ldw	r2,-12(fp)
    26ec:	2085883a 	add	r2,r4,r2
    26f0:	10802d04 	addi	r2,r2,180
    26f4:	10800003 	ldbu	r2,0(r2)
    26f8:	11003fcc 	andi	r4,r2,255
				m = 1;
				v2 = v;
				if (v2 >>= 1) {
					arith_encode(cinfo, st, 1);
					m <<= 1;
					st = entropy->ac_stats[tbl] +
    26fc:	e0bff517 	ldw	r2,-44(fp)
    2700:	20800216 	blt	r4,r2,270c <encode_mcu_AC_first+0x3a8>
    2704:	00802f44 	movi	r2,189
    2708:	00000106 	br	2710 <encode_mcu_AC_first+0x3ac>
    270c:	00803644 	movi	r2,217
    2710:	1885883a 	add	r2,r3,r2
    2714:	e0bff415 	stw	r2,-48(fp)
						(k <= cinfo->arith_ac_K[tbl] ? 189 : 217);
					while (v2 >>= 1) {
    2718:	00000a06 	br	2744 <encode_mcu_AC_first+0x3e0>
						arith_encode(cinfo, st, 1);
    271c:	e13ffe17 	ldw	r4,-8(fp)
    2720:	e17ff417 	ldw	r5,-48(fp)
    2724:	01800044 	movi	r6,1
    2728:	0001a540 	call	1a54 <arith_encode>
						m <<= 1;
    272c:	e0bff917 	ldw	r2,-28(fp)
    2730:	1085883a 	add	r2,r2,r2
    2734:	e0bff915 	stw	r2,-28(fp)
						st += 1;
    2738:	e0bff417 	ldw	r2,-48(fp)
    273c:	10800044 	addi	r2,r2,1
    2740:	e0bff415 	stw	r2,-48(fp)
				if (v2 >>= 1) {
					arith_encode(cinfo, st, 1);
					m <<= 1;
					st = entropy->ac_stats[tbl] +
						(k <= cinfo->arith_ac_K[tbl] ? 189 : 217);
					while (v2 >>= 1) {
    2744:	e0bff817 	ldw	r2,-32(fp)
    2748:	1005d07a 	srai	r2,r2,1
    274c:	e0bff815 	stw	r2,-32(fp)
    2750:	e0bff817 	ldw	r2,-32(fp)
    2754:	103ff11e 	bne	r2,zero,271c <encode_mcu_AC_first+0x3b8>
						m <<= 1;
						st += 1;
					}
				}
			}
			arith_encode(cinfo, st, 0);
    2758:	e13ffe17 	ldw	r4,-8(fp)
    275c:	e17ff417 	ldw	r5,-48(fp)
    2760:	000d883a 	mov	r6,zero
    2764:	0001a540 	call	1a54 <arith_encode>
			/* Figure F.9: Encoding the magnitude bit pattern of v */
			st += 14;
    2768:	e0bff417 	ldw	r2,-48(fp)
    276c:	10800384 	addi	r2,r2,14
    2770:	e0bff415 	stw	r2,-48(fp)
			while (m >>= 1)
    2774:	00000906 	br	279c <encode_mcu_AC_first+0x438>
				arith_encode(cinfo, st, (m & v) ? 1 : 0);
    2778:	e0fff917 	ldw	r3,-28(fp)
    277c:	e0bff717 	ldw	r2,-36(fp)
    2780:	1884703a 	and	r2,r3,r2
    2784:	1004c03a 	cmpne	r2,r2,zero
    2788:	10803fcc 	andi	r2,r2,255
    278c:	e13ffe17 	ldw	r4,-8(fp)
    2790:	e17ff417 	ldw	r5,-48(fp)
    2794:	100d883a 	mov	r6,r2
    2798:	0001a540 	call	1a54 <arith_encode>
				}
			}
			arith_encode(cinfo, st, 0);
			/* Figure F.9: Encoding the magnitude bit pattern of v */
			st += 14;
			while (m >>= 1)
    279c:	e0bff917 	ldw	r2,-28(fp)
    27a0:	1005d07a 	srai	r2,r2,1
    27a4:	e0bff915 	stw	r2,-28(fp)
    27a8:	e0bff917 	ldw	r2,-28(fp)
    27ac:	103ff21e 	bne	r2,zero,2778 <encode_mcu_AC_first+0x414>
			v = -v;
			if (v >>= cinfo->Al) break;
		}

		/* Figure F.5: Encode_AC_Coefficients */
		for (k = cinfo->Ss; k <= ke; k++) {
    27b0:	e0bff517 	ldw	r2,-44(fp)
    27b4:	10800044 	addi	r2,r2,1
    27b8:	e0bff515 	stw	r2,-44(fp)
    27bc:	e0bff517 	ldw	r2,-44(fp)
    27c0:	e0fff617 	ldw	r3,-40(fp)
    27c4:	18bf490e 	bge	r3,r2,24ec <encode_mcu_AC_first+0x188>
			st += 14;
			while (m >>= 1)
				arith_encode(cinfo, st, (m & v) ? 1 : 0);
		}
		/* Encode EOB decision only if k <= cinfo->Se */
		if (k <= cinfo->Se) {
    27c8:	e0bffe17 	ldw	r2,-8(fp)
    27cc:	10c05617 	ldw	r3,344(r2)
    27d0:	e0bff517 	ldw	r2,-44(fp)
    27d4:	18801216 	blt	r3,r2,2820 <encode_mcu_AC_first+0x4bc>
			st = entropy->ac_stats[tbl] + 3 * (k - 1);
    27d8:	e0fffa17 	ldw	r3,-24(fp)
    27dc:	e0bffd17 	ldw	r2,-12(fp)
    27e0:	108008c4 	addi	r2,r2,35
    27e4:	1085883a 	add	r2,r2,r2
    27e8:	1085883a 	add	r2,r2,r2
    27ec:	1885883a 	add	r2,r3,r2
    27f0:	11000017 	ldw	r4,0(r2)
    27f4:	e0bff517 	ldw	r2,-44(fp)
    27f8:	10ffffc4 	addi	r3,r2,-1
    27fc:	1805883a 	mov	r2,r3
    2800:	1085883a 	add	r2,r2,r2
    2804:	10c5883a 	add	r2,r2,r3
    2808:	2085883a 	add	r2,r4,r2
    280c:	e0bff415 	stw	r2,-48(fp)
			arith_encode(cinfo, st, 1);
    2810:	e13ffe17 	ldw	r4,-8(fp)
    2814:	e17ff417 	ldw	r5,-48(fp)
    2818:	01800044 	movi	r6,1
    281c:	0001a540 	call	1a54 <arith_encode>
		}

		return TRUE;
    2820:	00800044 	movi	r2,1
}
    2824:	e037883a 	mov	sp,fp
    2828:	dfc00117 	ldw	ra,4(sp)
    282c:	df000017 	ldw	fp,0(sp)
    2830:	dec00204 	addi	sp,sp,8
    2834:	f800283a 	ret

00002838 <encode_mcu_DC_refine>:
* MCU encoding for DC successive approximation refinement scan.
*/

METHODDEF(boolean)
	encode_mcu_DC_refine (j_compress_ptr cinfo, JBLOCKROW *MCU_data)
{
    2838:	defff804 	addi	sp,sp,-32
    283c:	dfc00715 	stw	ra,28(sp)
    2840:	df000615 	stw	fp,24(sp)
    2844:	df000604 	addi	fp,sp,24
    2848:	e13ffe15 	stw	r4,-8(fp)
    284c:	e17fff15 	stw	r5,-4(fp)
	arith_entropy_ptr entropy = (arith_entropy_ptr) cinfo->entropy;
    2850:	e0bffe17 	ldw	r2,-8(fp)
    2854:	10806417 	ldw	r2,400(r2)
    2858:	e0bffb15 	stw	r2,-20(fp)
	unsigned char *st;
	int Al, blkn;

	/* Emit restart marker if needed */
	if (cinfo->restart_interval) {
    285c:	e0bffe17 	ldw	r2,-8(fp)
    2860:	10803717 	ldw	r2,220(r2)
    2864:	10001b26 	beq	r2,zero,28d4 <encode_mcu_DC_refine+0x9c>
		if (entropy->restarts_to_go == 0) {
    2868:	e0bffb17 	ldw	r2,-20(fp)
    286c:	10801117 	ldw	r2,68(r2)
    2870:	1000131e 	bne	r2,zero,28c0 <encode_mcu_DC_refine+0x88>
			emit_restart(cinfo, entropy->next_restart_num);
    2874:	e0bffb17 	ldw	r2,-20(fp)
    2878:	10801217 	ldw	r2,72(r2)
    287c:	e13ffe17 	ldw	r4,-8(fp)
    2880:	100b883a 	mov	r5,r2
    2884:	0001d540 	call	1d54 <emit_restart>
			entropy->restarts_to_go = cinfo->restart_interval;
    2888:	e0bffe17 	ldw	r2,-8(fp)
    288c:	10c03717 	ldw	r3,220(r2)
    2890:	e0bffb17 	ldw	r2,-20(fp)
    2894:	10c01115 	stw	r3,68(r2)
			entropy->next_restart_num++;
    2898:	e0bffb17 	ldw	r2,-20(fp)
    289c:	10801217 	ldw	r2,72(r2)
    28a0:	10c00044 	addi	r3,r2,1
    28a4:	e0bffb17 	ldw	r2,-20(fp)
    28a8:	10c01215 	stw	r3,72(r2)
			entropy->next_restart_num &= 7;
    28ac:	e0bffb17 	ldw	r2,-20(fp)
    28b0:	10801217 	ldw	r2,72(r2)
    28b4:	10c001cc 	andi	r3,r2,7
    28b8:	e0bffb17 	ldw	r2,-20(fp)
    28bc:	10c01215 	stw	r3,72(r2)
		}
		entropy->restarts_to_go--;
    28c0:	e0bffb17 	ldw	r2,-20(fp)
    28c4:	10801117 	ldw	r2,68(r2)
    28c8:	10ffffc4 	addi	r3,r2,-1
    28cc:	e0bffb17 	ldw	r2,-20(fp)
    28d0:	10c01115 	stw	r3,68(r2)
	}

	st = entropy->fixed_bin;	/* use fixed probability estimation */
    28d4:	e0bffb17 	ldw	r2,-20(fp)
    28d8:	10803304 	addi	r2,r2,204
    28dc:	e0bffc15 	stw	r2,-16(fp)
	Al = cinfo->Al;
    28e0:	e0bffe17 	ldw	r2,-8(fp)
    28e4:	10805817 	ldw	r2,352(r2)
    28e8:	e0bffd15 	stw	r2,-12(fp)

	/* Encode the MCU data blocks */
	for (blkn = 0; blkn < cinfo->blocks_in_MCU; blkn++) {
    28ec:	e03ffa15 	stw	zero,-24(fp)
    28f0:	00001406 	br	2944 <encode_mcu_DC_refine+0x10c>
		/* We simply emit the Al'th bit of the DC coefficient value. */
		arith_encode(cinfo, st, (MCU_data[blkn][0][0] >> Al) & 1);
    28f4:	e0bffa17 	ldw	r2,-24(fp)
    28f8:	1085883a 	add	r2,r2,r2
    28fc:	1085883a 	add	r2,r2,r2
    2900:	e0ffff17 	ldw	r3,-4(fp)
    2904:	1885883a 	add	r2,r3,r2
    2908:	10800017 	ldw	r2,0(r2)
    290c:	1080000b 	ldhu	r2,0(r2)
    2910:	10ffffcc 	andi	r3,r2,65535
    2914:	18e0001c 	xori	r3,r3,32768
    2918:	18e00004 	addi	r3,r3,-32768
    291c:	e0bffd17 	ldw	r2,-12(fp)
    2920:	1885d83a 	sra	r2,r3,r2
    2924:	1080004c 	andi	r2,r2,1
    2928:	e13ffe17 	ldw	r4,-8(fp)
    292c:	e17ffc17 	ldw	r5,-16(fp)
    2930:	100d883a 	mov	r6,r2
    2934:	0001a540 	call	1a54 <arith_encode>

	st = entropy->fixed_bin;	/* use fixed probability estimation */
	Al = cinfo->Al;

	/* Encode the MCU data blocks */
	for (blkn = 0; blkn < cinfo->blocks_in_MCU; blkn++) {
    2938:	e0bffa17 	ldw	r2,-24(fp)
    293c:	10800044 	addi	r2,r2,1
    2940:	e0bffa15 	stw	r2,-24(fp)
    2944:	e0bffe17 	ldw	r2,-8(fp)
    2948:	10804a17 	ldw	r2,296(r2)
    294c:	e0fffa17 	ldw	r3,-24(fp)
    2950:	18bfe816 	blt	r3,r2,28f4 <encode_mcu_DC_refine+0xbc>
		/* We simply emit the Al'th bit of the DC coefficient value. */
		arith_encode(cinfo, st, (MCU_data[blkn][0][0] >> Al) & 1);
	}

	return TRUE;
    2954:	00800044 	movi	r2,1
}
    2958:	e037883a 	mov	sp,fp
    295c:	dfc00117 	ldw	ra,4(sp)
    2960:	df000017 	ldw	fp,0(sp)
    2964:	dec00204 	addi	sp,sp,8
    2968:	f800283a 	ret

0000296c <encode_mcu_AC_refine>:
* MCU encoding for AC successive approximation refinement scan.
*/

METHODDEF(boolean)
	encode_mcu_AC_refine (j_compress_ptr cinfo, JBLOCKROW *MCU_data)
{
    296c:	defff304 	addi	sp,sp,-52
    2970:	dfc00c15 	stw	ra,48(sp)
    2974:	df000b15 	stw	fp,44(sp)
    2978:	df000b04 	addi	fp,sp,44
    297c:	e13ffe15 	stw	r4,-8(fp)
    2980:	e17fff15 	stw	r5,-4(fp)
	arith_entropy_ptr entropy = (arith_entropy_ptr) cinfo->entropy;
    2984:	e0bffe17 	ldw	r2,-8(fp)
    2988:	10806417 	ldw	r2,400(r2)
    298c:	e0bff915 	stw	r2,-28(fp)
	int tbl, k, ke, kex;
	int v;
	const int * natural_order;

	/* Emit restart marker if needed */
	if (cinfo->restart_interval) {
    2990:	e0bffe17 	ldw	r2,-8(fp)
    2994:	10803717 	ldw	r2,220(r2)
    2998:	10001b26 	beq	r2,zero,2a08 <encode_mcu_AC_refine+0x9c>
		if (entropy->restarts_to_go == 0) {
    299c:	e0bff917 	ldw	r2,-28(fp)
    29a0:	10801117 	ldw	r2,68(r2)
    29a4:	1000131e 	bne	r2,zero,29f4 <encode_mcu_AC_refine+0x88>
			emit_restart(cinfo, entropy->next_restart_num);
    29a8:	e0bff917 	ldw	r2,-28(fp)
    29ac:	10801217 	ldw	r2,72(r2)
    29b0:	e13ffe17 	ldw	r4,-8(fp)
    29b4:	100b883a 	mov	r5,r2
    29b8:	0001d540 	call	1d54 <emit_restart>
			entropy->restarts_to_go = cinfo->restart_interval;
    29bc:	e0bffe17 	ldw	r2,-8(fp)
    29c0:	10c03717 	ldw	r3,220(r2)
    29c4:	e0bff917 	ldw	r2,-28(fp)
    29c8:	10c01115 	stw	r3,68(r2)
			entropy->next_restart_num++;
    29cc:	e0bff917 	ldw	r2,-28(fp)
    29d0:	10801217 	ldw	r2,72(r2)
    29d4:	10c00044 	addi	r3,r2,1
    29d8:	e0bff917 	ldw	r2,-28(fp)
    29dc:	10c01215 	stw	r3,72(r2)
			entropy->next_restart_num &= 7;
    29e0:	e0bff917 	ldw	r2,-28(fp)
    29e4:	10801217 	ldw	r2,72(r2)
    29e8:	10c001cc 	andi	r3,r2,7
    29ec:	e0bff917 	ldw	r2,-28(fp)
    29f0:	10c01215 	stw	r3,72(r2)
		}
		entropy->restarts_to_go--;
    29f4:	e0bff917 	ldw	r2,-28(fp)
    29f8:	10801117 	ldw	r2,68(r2)
    29fc:	10ffffc4 	addi	r3,r2,-1
    2a00:	e0bff917 	ldw	r2,-28(fp)
    2a04:	10c01115 	stw	r3,68(r2)
	}

	natural_order = cinfo->natural_order;
    2a08:	e0bffe17 	ldw	r2,-8(fp)
    2a0c:	10805a17 	ldw	r2,360(r2)
    2a10:	e0bffa15 	stw	r2,-24(fp)

	/* Encode the MCU data block */
	block = MCU_data[0];
    2a14:	e0bfff17 	ldw	r2,-4(fp)
    2a18:	10800017 	ldw	r2,0(r2)
    2a1c:	e0bffb15 	stw	r2,-20(fp)
	tbl = cinfo->cur_comp_info[0]->ac_tbl_no;
    2a20:	e0bffe17 	ldw	r2,-8(fp)
    2a24:	10804417 	ldw	r2,272(r2)
    2a28:	10800617 	ldw	r2,24(r2)
    2a2c:	e0bffc15 	stw	r2,-16(fp)

	/* Section G.1.3.3: Encoding of AC coefficients */

	/* Establish EOB (end-of-block) index */
	for (ke = cinfo->Se; ke > 0; ke--)
    2a30:	e0bffe17 	ldw	r2,-8(fp)
    2a34:	10805617 	ldw	r2,344(r2)
    2a38:	e0bff715 	stw	r2,-36(fp)
    2a3c:	00002506 	br	2ad4 <encode_mcu_AC_refine+0x168>
		/* We must apply the point transform by Al.  For AC coefficients this
		* is an integer division with rounding towards 0.  To do this portably
		* in C, we shift after obtaining the absolute value.
		*/
		if ((v = (*block)[natural_order[ke]]) >= 0) {
    2a40:	e0bff717 	ldw	r2,-36(fp)
    2a44:	1085883a 	add	r2,r2,r2
    2a48:	1085883a 	add	r2,r2,r2
    2a4c:	e0fffa17 	ldw	r3,-24(fp)
    2a50:	1885883a 	add	r2,r3,r2
    2a54:	10800017 	ldw	r2,0(r2)
    2a58:	e0fffb17 	ldw	r3,-20(fp)
    2a5c:	1085883a 	add	r2,r2,r2
    2a60:	1885883a 	add	r2,r3,r2
    2a64:	1080000b 	ldhu	r2,0(r2)
    2a68:	10bfffcc 	andi	r2,r2,65535
    2a6c:	10a0001c 	xori	r2,r2,32768
    2a70:	10a00004 	addi	r2,r2,-32768
    2a74:	e0bffd15 	stw	r2,-12(fp)
    2a78:	e0bffd17 	ldw	r2,-12(fp)
    2a7c:	10000816 	blt	r2,zero,2aa0 <encode_mcu_AC_refine+0x134>
			if (v >>= cinfo->Al) break;
    2a80:	e0bffe17 	ldw	r2,-8(fp)
    2a84:	10805817 	ldw	r2,352(r2)
    2a88:	e0fffd17 	ldw	r3,-12(fp)
    2a8c:	1885d83a 	sra	r2,r3,r2
    2a90:	e0bffd15 	stw	r2,-12(fp)
    2a94:	e0bffd17 	ldw	r2,-12(fp)
    2a98:	10000b26 	beq	r2,zero,2ac8 <encode_mcu_AC_refine+0x15c>
    2a9c:	00001106 	br	2ae4 <encode_mcu_AC_refine+0x178>
		} else {
			v = -v;
    2aa0:	e0bffd17 	ldw	r2,-12(fp)
    2aa4:	0085c83a 	sub	r2,zero,r2
    2aa8:	e0bffd15 	stw	r2,-12(fp)
			if (v >>= cinfo->Al) break;
    2aac:	e0bffe17 	ldw	r2,-8(fp)
    2ab0:	10805817 	ldw	r2,352(r2)
    2ab4:	e0fffd17 	ldw	r3,-12(fp)
    2ab8:	1885d83a 	sra	r2,r3,r2
    2abc:	e0bffd15 	stw	r2,-12(fp)
    2ac0:	e0bffd17 	ldw	r2,-12(fp)
    2ac4:	1000061e 	bne	r2,zero,2ae0 <encode_mcu_AC_refine+0x174>
	tbl = cinfo->cur_comp_info[0]->ac_tbl_no;

	/* Section G.1.3.3: Encoding of AC coefficients */

	/* Establish EOB (end-of-block) index */
	for (ke = cinfo->Se; ke > 0; ke--)
    2ac8:	e0bff717 	ldw	r2,-36(fp)
    2acc:	10bfffc4 	addi	r2,r2,-1
    2ad0:	e0bff715 	stw	r2,-36(fp)
    2ad4:	e0bff717 	ldw	r2,-36(fp)
    2ad8:	00bfd916 	blt	zero,r2,2a40 <encode_mcu_AC_refine+0xd4>
    2adc:	00000106 	br	2ae4 <encode_mcu_AC_refine+0x178>
		*/
		if ((v = (*block)[natural_order[ke]]) >= 0) {
			if (v >>= cinfo->Al) break;
		} else {
			v = -v;
			if (v >>= cinfo->Al) break;
    2ae0:	0001883a 	nop
		}

		/* Establish EOBx (previous stage end-of-block) index */
		for (kex = ke; kex > 0; kex--)
    2ae4:	e0bff717 	ldw	r2,-36(fp)
    2ae8:	e0bff815 	stw	r2,-32(fp)
    2aec:	00002506 	br	2b84 <encode_mcu_AC_refine+0x218>
			if ((v = (*block)[natural_order[kex]]) >= 0) {
    2af0:	e0bff817 	ldw	r2,-32(fp)
    2af4:	1085883a 	add	r2,r2,r2
    2af8:	1085883a 	add	r2,r2,r2
    2afc:	e0fffa17 	ldw	r3,-24(fp)
    2b00:	1885883a 	add	r2,r3,r2
    2b04:	10800017 	ldw	r2,0(r2)
    2b08:	e0fffb17 	ldw	r3,-20(fp)
    2b0c:	1085883a 	add	r2,r2,r2
    2b10:	1885883a 	add	r2,r3,r2
    2b14:	1080000b 	ldhu	r2,0(r2)
    2b18:	10bfffcc 	andi	r2,r2,65535
    2b1c:	10a0001c 	xori	r2,r2,32768
    2b20:	10a00004 	addi	r2,r2,-32768
    2b24:	e0bffd15 	stw	r2,-12(fp)
    2b28:	e0bffd17 	ldw	r2,-12(fp)
    2b2c:	10000816 	blt	r2,zero,2b50 <encode_mcu_AC_refine+0x1e4>
				if (v >>= cinfo->Ah) break;
    2b30:	e0bffe17 	ldw	r2,-8(fp)
    2b34:	10805717 	ldw	r2,348(r2)
    2b38:	e0fffd17 	ldw	r3,-12(fp)
    2b3c:	1885d83a 	sra	r2,r3,r2
    2b40:	e0bffd15 	stw	r2,-12(fp)
    2b44:	e0bffd17 	ldw	r2,-12(fp)
    2b48:	10000b26 	beq	r2,zero,2b78 <encode_mcu_AC_refine+0x20c>
    2b4c:	00001106 	br	2b94 <encode_mcu_AC_refine+0x228>
			} else {
				v = -v;
    2b50:	e0bffd17 	ldw	r2,-12(fp)
    2b54:	0085c83a 	sub	r2,zero,r2
    2b58:	e0bffd15 	stw	r2,-12(fp)
				if (v >>= cinfo->Ah) break;
    2b5c:	e0bffe17 	ldw	r2,-8(fp)
    2b60:	10805717 	ldw	r2,348(r2)
    2b64:	e0fffd17 	ldw	r3,-12(fp)
    2b68:	1885d83a 	sra	r2,r3,r2
    2b6c:	e0bffd15 	stw	r2,-12(fp)
    2b70:	e0bffd17 	ldw	r2,-12(fp)
    2b74:	1000061e 	bne	r2,zero,2b90 <encode_mcu_AC_refine+0x224>
			v = -v;
			if (v >>= cinfo->Al) break;
		}

		/* Establish EOBx (previous stage end-of-block) index */
		for (kex = ke; kex > 0; kex--)
    2b78:	e0bff817 	ldw	r2,-32(fp)
    2b7c:	10bfffc4 	addi	r2,r2,-1
    2b80:	e0bff815 	stw	r2,-32(fp)
    2b84:	e0bff817 	ldw	r2,-32(fp)
    2b88:	00bfd916 	blt	zero,r2,2af0 <encode_mcu_AC_refine+0x184>
    2b8c:	00000106 	br	2b94 <encode_mcu_AC_refine+0x228>
			if ((v = (*block)[natural_order[kex]]) >= 0) {
				if (v >>= cinfo->Ah) break;
			} else {
				v = -v;
				if (v >>= cinfo->Ah) break;
    2b90:	0001883a 	nop
			}

			/* Figure G.10: Encode_AC_Coefficients_SA */
			for (k = cinfo->Ss; k <= ke; k++) {
    2b94:	e0bffe17 	ldw	r2,-8(fp)
    2b98:	10805517 	ldw	r2,340(r2)
    2b9c:	e0bff615 	stw	r2,-40(fp)
    2ba0:	00007806 	br	2d84 <encode_mcu_AC_refine+0x418>
				st = entropy->ac_stats[tbl] + 3 * (k - 1);
    2ba4:	e0fff917 	ldw	r3,-28(fp)
    2ba8:	e0bffc17 	ldw	r2,-16(fp)
    2bac:	108008c4 	addi	r2,r2,35
    2bb0:	1085883a 	add	r2,r2,r2
    2bb4:	1085883a 	add	r2,r2,r2
    2bb8:	1885883a 	add	r2,r3,r2
    2bbc:	11000017 	ldw	r4,0(r2)
    2bc0:	e0bff617 	ldw	r2,-40(fp)
    2bc4:	10ffffc4 	addi	r3,r2,-1
    2bc8:	1805883a 	mov	r2,r3
    2bcc:	1085883a 	add	r2,r2,r2
    2bd0:	10c5883a 	add	r2,r2,r3
    2bd4:	2085883a 	add	r2,r4,r2
    2bd8:	e0bff515 	stw	r2,-44(fp)
				if (k > kex)
    2bdc:	e0bff617 	ldw	r2,-40(fp)
    2be0:	e0fff817 	ldw	r3,-32(fp)
    2be4:	1880040e 	bge	r3,r2,2bf8 <encode_mcu_AC_refine+0x28c>
					arith_encode(cinfo, st, 0);	/* EOB decision */
    2be8:	e13ffe17 	ldw	r4,-8(fp)
    2bec:	e17ff517 	ldw	r5,-44(fp)
    2bf0:	000d883a 	mov	r6,zero
    2bf4:	0001a540 	call	1a54 <arith_encode>
				for (;;) {
					if ((v = (*block)[natural_order[k]]) >= 0) {
    2bf8:	e0bff617 	ldw	r2,-40(fp)
    2bfc:	1085883a 	add	r2,r2,r2
    2c00:	1085883a 	add	r2,r2,r2
    2c04:	e0fffa17 	ldw	r3,-24(fp)
    2c08:	1885883a 	add	r2,r3,r2
    2c0c:	10800017 	ldw	r2,0(r2)
    2c10:	e0fffb17 	ldw	r3,-20(fp)
    2c14:	1085883a 	add	r2,r2,r2
    2c18:	1885883a 	add	r2,r3,r2
    2c1c:	1080000b 	ldhu	r2,0(r2)
    2c20:	10bfffcc 	andi	r2,r2,65535
    2c24:	10a0001c 	xori	r2,r2,32768
    2c28:	10a00004 	addi	r2,r2,-32768
    2c2c:	e0bffd15 	stw	r2,-12(fp)
    2c30:	e0bffd17 	ldw	r2,-12(fp)
    2c34:	10002016 	blt	r2,zero,2cb8 <encode_mcu_AC_refine+0x34c>
						if (v >>= cinfo->Al) {
    2c38:	e0bffe17 	ldw	r2,-8(fp)
    2c3c:	10805817 	ldw	r2,352(r2)
    2c40:	e0fffd17 	ldw	r3,-12(fp)
    2c44:	1885d83a 	sra	r2,r3,r2
    2c48:	e0bffd15 	stw	r2,-12(fp)
    2c4c:	e0bffd17 	ldw	r2,-12(fp)
    2c50:	10003c26 	beq	r2,zero,2d44 <encode_mcu_AC_refine+0x3d8>
							if (v >> 1)			/* previously nonzero coef */
    2c54:	e0bffd17 	ldw	r2,-12(fp)
    2c58:	1005d07a 	srai	r2,r2,1
    2c5c:	10000926 	beq	r2,zero,2c84 <encode_mcu_AC_refine+0x318>
								arith_encode(cinfo, st + 2, (v & 1));
    2c60:	e0bff517 	ldw	r2,-44(fp)
    2c64:	10c00084 	addi	r3,r2,2
    2c68:	e0bffd17 	ldw	r2,-12(fp)
    2c6c:	1080004c 	andi	r2,r2,1
    2c70:	e13ffe17 	ldw	r4,-8(fp)
    2c74:	180b883a 	mov	r5,r3
    2c78:	100d883a 	mov	r6,r2
    2c7c:	0001a540 	call	1a54 <arith_encode>
							else {			/* newly nonzero coef */
								arith_encode(cinfo, st + 1, 1);
								arith_encode(cinfo, entropy->fixed_bin, 0);
							}
							break;
    2c80:	00003d06 	br	2d78 <encode_mcu_AC_refine+0x40c>
					if ((v = (*block)[natural_order[k]]) >= 0) {
						if (v >>= cinfo->Al) {
							if (v >> 1)			/* previously nonzero coef */
								arith_encode(cinfo, st + 2, (v & 1));
							else {			/* newly nonzero coef */
								arith_encode(cinfo, st + 1, 1);
    2c84:	e0bff517 	ldw	r2,-44(fp)
    2c88:	10800044 	addi	r2,r2,1
    2c8c:	e13ffe17 	ldw	r4,-8(fp)
    2c90:	100b883a 	mov	r5,r2
    2c94:	01800044 	movi	r6,1
    2c98:	0001a540 	call	1a54 <arith_encode>
								arith_encode(cinfo, entropy->fixed_bin, 0);
    2c9c:	e0bff917 	ldw	r2,-28(fp)
    2ca0:	10803304 	addi	r2,r2,204
    2ca4:	e13ffe17 	ldw	r4,-8(fp)
    2ca8:	100b883a 	mov	r5,r2
    2cac:	000d883a 	mov	r6,zero
    2cb0:	0001a540 	call	1a54 <arith_encode>
							}
							break;
    2cb4:	00003006 	br	2d78 <encode_mcu_AC_refine+0x40c>
						}
					} else {
						v = -v;
    2cb8:	e0bffd17 	ldw	r2,-12(fp)
    2cbc:	0085c83a 	sub	r2,zero,r2
    2cc0:	e0bffd15 	stw	r2,-12(fp)
						if (v >>= cinfo->Al) {
    2cc4:	e0bffe17 	ldw	r2,-8(fp)
    2cc8:	10805817 	ldw	r2,352(r2)
    2ccc:	e0fffd17 	ldw	r3,-12(fp)
    2cd0:	1885d83a 	sra	r2,r3,r2
    2cd4:	e0bffd15 	stw	r2,-12(fp)
    2cd8:	e0bffd17 	ldw	r2,-12(fp)
    2cdc:	10001926 	beq	r2,zero,2d44 <encode_mcu_AC_refine+0x3d8>
							if (v >> 1)			/* previously nonzero coef */
    2ce0:	e0bffd17 	ldw	r2,-12(fp)
    2ce4:	1005d07a 	srai	r2,r2,1
    2ce8:	10000926 	beq	r2,zero,2d10 <encode_mcu_AC_refine+0x3a4>
								arith_encode(cinfo, st + 2, (v & 1));
    2cec:	e0bff517 	ldw	r2,-44(fp)
    2cf0:	10c00084 	addi	r3,r2,2
    2cf4:	e0bffd17 	ldw	r2,-12(fp)
    2cf8:	1080004c 	andi	r2,r2,1
    2cfc:	e13ffe17 	ldw	r4,-8(fp)
    2d00:	180b883a 	mov	r5,r3
    2d04:	100d883a 	mov	r6,r2
    2d08:	0001a540 	call	1a54 <arith_encode>
							else {			/* newly nonzero coef */
								arith_encode(cinfo, st + 1, 1);
								arith_encode(cinfo, entropy->fixed_bin, 1);
							}
							break;
    2d0c:	00001a06 	br	2d78 <encode_mcu_AC_refine+0x40c>
						v = -v;
						if (v >>= cinfo->Al) {
							if (v >> 1)			/* previously nonzero coef */
								arith_encode(cinfo, st + 2, (v & 1));
							else {			/* newly nonzero coef */
								arith_encode(cinfo, st + 1, 1);
    2d10:	e0bff517 	ldw	r2,-44(fp)
    2d14:	10800044 	addi	r2,r2,1
    2d18:	e13ffe17 	ldw	r4,-8(fp)
    2d1c:	100b883a 	mov	r5,r2
    2d20:	01800044 	movi	r6,1
    2d24:	0001a540 	call	1a54 <arith_encode>
								arith_encode(cinfo, entropy->fixed_bin, 1);
    2d28:	e0bff917 	ldw	r2,-28(fp)
    2d2c:	10803304 	addi	r2,r2,204
    2d30:	e13ffe17 	ldw	r4,-8(fp)
    2d34:	100b883a 	mov	r5,r2
    2d38:	01800044 	movi	r6,1
    2d3c:	0001a540 	call	1a54 <arith_encode>
							}
							break;
    2d40:	00000d06 	br	2d78 <encode_mcu_AC_refine+0x40c>
						}
					}
					arith_encode(cinfo, st + 1, 0); st += 3; k++;
    2d44:	e0bff517 	ldw	r2,-44(fp)
    2d48:	10800044 	addi	r2,r2,1
    2d4c:	e13ffe17 	ldw	r4,-8(fp)
    2d50:	100b883a 	mov	r5,r2
    2d54:	000d883a 	mov	r6,zero
    2d58:	0001a540 	call	1a54 <arith_encode>
    2d5c:	e0bff517 	ldw	r2,-44(fp)
    2d60:	108000c4 	addi	r2,r2,3
    2d64:	e0bff515 	stw	r2,-44(fp)
    2d68:	e0bff617 	ldw	r2,-40(fp)
    2d6c:	10800044 	addi	r2,r2,1
    2d70:	e0bff615 	stw	r2,-40(fp)
				}
    2d74:	003fa006 	br	2bf8 <encode_mcu_AC_refine+0x28c>
				v = -v;
				if (v >>= cinfo->Ah) break;
			}

			/* Figure G.10: Encode_AC_Coefficients_SA */
			for (k = cinfo->Ss; k <= ke; k++) {
    2d78:	e0bff617 	ldw	r2,-40(fp)
    2d7c:	10800044 	addi	r2,r2,1
    2d80:	e0bff615 	stw	r2,-40(fp)
    2d84:	e0bff617 	ldw	r2,-40(fp)
    2d88:	e0fff717 	ldw	r3,-36(fp)
    2d8c:	18bf850e 	bge	r3,r2,2ba4 <encode_mcu_AC_refine+0x238>
					}
					arith_encode(cinfo, st + 1, 0); st += 3; k++;
				}
			}
			/* Encode EOB decision only if k <= cinfo->Se */
			if (k <= cinfo->Se) {
    2d90:	e0bffe17 	ldw	r2,-8(fp)
    2d94:	10c05617 	ldw	r3,344(r2)
    2d98:	e0bff617 	ldw	r2,-40(fp)
    2d9c:	18801216 	blt	r3,r2,2de8 <encode_mcu_AC_refine+0x47c>
				st = entropy->ac_stats[tbl] + 3 * (k - 1);
    2da0:	e0fff917 	ldw	r3,-28(fp)
    2da4:	e0bffc17 	ldw	r2,-16(fp)
    2da8:	108008c4 	addi	r2,r2,35
    2dac:	1085883a 	add	r2,r2,r2
    2db0:	1085883a 	add	r2,r2,r2
    2db4:	1885883a 	add	r2,r3,r2
    2db8:	11000017 	ldw	r4,0(r2)
    2dbc:	e0bff617 	ldw	r2,-40(fp)
    2dc0:	10ffffc4 	addi	r3,r2,-1
    2dc4:	1805883a 	mov	r2,r3
    2dc8:	1085883a 	add	r2,r2,r2
    2dcc:	10c5883a 	add	r2,r2,r3
    2dd0:	2085883a 	add	r2,r4,r2
    2dd4:	e0bff515 	stw	r2,-44(fp)
				arith_encode(cinfo, st, 1);
    2dd8:	e13ffe17 	ldw	r4,-8(fp)
    2ddc:	e17ff517 	ldw	r5,-44(fp)
    2de0:	01800044 	movi	r6,1
    2de4:	0001a540 	call	1a54 <arith_encode>
			}

			return TRUE;
    2de8:	00800044 	movi	r2,1
}
    2dec:	e037883a 	mov	sp,fp
    2df0:	dfc00117 	ldw	ra,4(sp)
    2df4:	df000017 	ldw	fp,0(sp)
    2df8:	dec00204 	addi	sp,sp,8
    2dfc:	f800283a 	ret

00002e00 <encode_mcu>:
* Encode and output one MCU's worth of arithmetic-compressed coefficients.
*/

METHODDEF(boolean)
	encode_mcu (j_compress_ptr cinfo, JBLOCKROW *MCU_data)
{
    2e00:	deffef04 	addi	sp,sp,-68
    2e04:	dfc01015 	stw	ra,64(sp)
    2e08:	df000f15 	stw	fp,60(sp)
    2e0c:	df000f04 	addi	fp,sp,60
    2e10:	e13ffe15 	stw	r4,-8(fp)
    2e14:	e17fff15 	stw	r5,-4(fp)
	arith_entropy_ptr entropy = (arith_entropy_ptr) cinfo->entropy;
    2e18:	e0bffe17 	ldw	r2,-8(fp)
    2e1c:	10806417 	ldw	r2,400(r2)
    2e20:	e0bff815 	stw	r2,-32(fp)
	int blkn, ci, tbl, k, ke;
	int v, v2, m;
	const int * natural_order;

	/* Emit restart marker if needed */
	if (cinfo->restart_interval) {
    2e24:	e0bffe17 	ldw	r2,-8(fp)
    2e28:	10803717 	ldw	r2,220(r2)
    2e2c:	10001b26 	beq	r2,zero,2e9c <encode_mcu+0x9c>
		if (entropy->restarts_to_go == 0) {
    2e30:	e0bff817 	ldw	r2,-32(fp)
    2e34:	10801117 	ldw	r2,68(r2)
    2e38:	1000131e 	bne	r2,zero,2e88 <encode_mcu+0x88>
			emit_restart(cinfo, entropy->next_restart_num);
    2e3c:	e0bff817 	ldw	r2,-32(fp)
    2e40:	10801217 	ldw	r2,72(r2)
    2e44:	e13ffe17 	ldw	r4,-8(fp)
    2e48:	100b883a 	mov	r5,r2
    2e4c:	0001d540 	call	1d54 <emit_restart>
			entropy->restarts_to_go = cinfo->restart_interval;
    2e50:	e0bffe17 	ldw	r2,-8(fp)
    2e54:	10c03717 	ldw	r3,220(r2)
    2e58:	e0bff817 	ldw	r2,-32(fp)
    2e5c:	10c01115 	stw	r3,68(r2)
			entropy->next_restart_num++;
    2e60:	e0bff817 	ldw	r2,-32(fp)
    2e64:	10801217 	ldw	r2,72(r2)
    2e68:	10c00044 	addi	r3,r2,1
    2e6c:	e0bff817 	ldw	r2,-32(fp)
    2e70:	10c01215 	stw	r3,72(r2)
			entropy->next_restart_num &= 7;
    2e74:	e0bff817 	ldw	r2,-32(fp)
    2e78:	10801217 	ldw	r2,72(r2)
    2e7c:	10c001cc 	andi	r3,r2,7
    2e80:	e0bff817 	ldw	r2,-32(fp)
    2e84:	10c01215 	stw	r3,72(r2)
		}
		entropy->restarts_to_go--;
    2e88:	e0bff817 	ldw	r2,-32(fp)
    2e8c:	10801117 	ldw	r2,68(r2)
    2e90:	10ffffc4 	addi	r3,r2,-1
    2e94:	e0bff817 	ldw	r2,-32(fp)
    2e98:	10c01115 	stw	r3,68(r2)
	}

	natural_order = cinfo->natural_order;
    2e9c:	e0bffe17 	ldw	r2,-8(fp)
    2ea0:	10805a17 	ldw	r2,360(r2)
    2ea4:	e0bff915 	stw	r2,-28(fp)

	/* Encode the MCU data blocks */
	for (blkn = 0; blkn < cinfo->blocks_in_MCU; blkn++) {
    2ea8:	e03ff215 	stw	zero,-56(fp)
    2eac:	0001c406 	br	35c0 <encode_mcu+0x7c0>
		block = MCU_data[blkn];
    2eb0:	e0bff217 	ldw	r2,-56(fp)
    2eb4:	1085883a 	add	r2,r2,r2
    2eb8:	1085883a 	add	r2,r2,r2
    2ebc:	e0ffff17 	ldw	r3,-4(fp)
    2ec0:	1885883a 	add	r2,r3,r2
    2ec4:	10800017 	ldw	r2,0(r2)
    2ec8:	e0bffa15 	stw	r2,-24(fp)
		ci = cinfo->MCU_membership[blkn];
    2ecc:	e0fffe17 	ldw	r3,-8(fp)
    2ed0:	e0bff217 	ldw	r2,-56(fp)
    2ed4:	108012c4 	addi	r2,r2,75
    2ed8:	1085883a 	add	r2,r2,r2
    2edc:	1085883a 	add	r2,r2,r2
    2ee0:	1885883a 	add	r2,r3,r2
    2ee4:	10800017 	ldw	r2,0(r2)
    2ee8:	e0bffb15 	stw	r2,-20(fp)
		compptr = cinfo->cur_comp_info[ci];
    2eec:	e0fffe17 	ldw	r3,-8(fp)
    2ef0:	e0bffb17 	ldw	r2,-20(fp)
    2ef4:	10801104 	addi	r2,r2,68
    2ef8:	1085883a 	add	r2,r2,r2
    2efc:	1085883a 	add	r2,r2,r2
    2f00:	1885883a 	add	r2,r3,r2
    2f04:	10800017 	ldw	r2,0(r2)
    2f08:	e0bffc15 	stw	r2,-16(fp)

		/* Sections F.1.4.1 & F.1.4.4.1: Encoding of DC coefficients */

		tbl = compptr->dc_tbl_no;
    2f0c:	e0bffc17 	ldw	r2,-16(fp)
    2f10:	10800517 	ldw	r2,20(r2)
    2f14:	e0bffd15 	stw	r2,-12(fp)

		/* Table F.4: Point to statistics bin S0 for DC coefficient coding */
		st = entropy->dc_stats[tbl] + entropy->dc_context[ci];
    2f18:	e0fff817 	ldw	r3,-32(fp)
    2f1c:	e0bffd17 	ldw	r2,-12(fp)
    2f20:	108004c4 	addi	r2,r2,19
    2f24:	1085883a 	add	r2,r2,r2
    2f28:	1085883a 	add	r2,r2,r2
    2f2c:	1885883a 	add	r2,r3,r2
    2f30:	10c00017 	ldw	r3,0(r2)
    2f34:	e13ff817 	ldw	r4,-32(fp)
    2f38:	e0bffb17 	ldw	r2,-20(fp)
    2f3c:	10800344 	addi	r2,r2,13
    2f40:	1085883a 	add	r2,r2,r2
    2f44:	1085883a 	add	r2,r2,r2
    2f48:	2085883a 	add	r2,r4,r2
    2f4c:	10800017 	ldw	r2,0(r2)
    2f50:	1885883a 	add	r2,r3,r2
    2f54:	e0bff115 	stw	r2,-60(fp)

		/* Figure F.4: Encode_DC_DIFF */
		if ((v = (*block)[0] - entropy->last_dc_val[ci]) == 0) {
    2f58:	e0bffa17 	ldw	r2,-24(fp)
    2f5c:	1080000b 	ldhu	r2,0(r2)
    2f60:	10ffffcc 	andi	r3,r2,65535
    2f64:	18e0001c 	xori	r3,r3,32768
    2f68:	18e00004 	addi	r3,r3,-32768
    2f6c:	e13ff817 	ldw	r4,-32(fp)
    2f70:	e0bffb17 	ldw	r2,-20(fp)
    2f74:	10800244 	addi	r2,r2,9
    2f78:	1085883a 	add	r2,r2,r2
    2f7c:	1085883a 	add	r2,r2,r2
    2f80:	2085883a 	add	r2,r4,r2
    2f84:	10800017 	ldw	r2,0(r2)
    2f88:	1885c83a 	sub	r2,r3,r2
    2f8c:	e0bff515 	stw	r2,-44(fp)
    2f90:	e0bff517 	ldw	r2,-44(fp)
    2f94:	10000c1e 	bne	r2,zero,2fc8 <encode_mcu+0x1c8>
			arith_encode(cinfo, st, 0);
    2f98:	e13ffe17 	ldw	r4,-8(fp)
    2f9c:	e17ff117 	ldw	r5,-60(fp)
    2fa0:	000d883a 	mov	r6,zero
    2fa4:	0001a540 	call	1a54 <arith_encode>
			entropy->dc_context[ci] = 0;	/* zero diff category */
    2fa8:	e0fff817 	ldw	r3,-32(fp)
    2fac:	e0bffb17 	ldw	r2,-20(fp)
    2fb0:	10800344 	addi	r2,r2,13
    2fb4:	1085883a 	add	r2,r2,r2
    2fb8:	1085883a 	add	r2,r2,r2
    2fbc:	1885883a 	add	r2,r3,r2
    2fc0:	10000015 	stw	zero,0(r2)
    2fc4:	0000a206 	br	3250 <encode_mcu+0x450>
		} else {
			entropy->last_dc_val[ci] = (*block)[0];
    2fc8:	e0bffa17 	ldw	r2,-24(fp)
    2fcc:	1080000b 	ldhu	r2,0(r2)
    2fd0:	10ffffcc 	andi	r3,r2,65535
    2fd4:	18e0001c 	xori	r3,r3,32768
    2fd8:	18e00004 	addi	r3,r3,-32768
    2fdc:	e13ff817 	ldw	r4,-32(fp)
    2fe0:	e0bffb17 	ldw	r2,-20(fp)
    2fe4:	10800244 	addi	r2,r2,9
    2fe8:	1085883a 	add	r2,r2,r2
    2fec:	1085883a 	add	r2,r2,r2
    2ff0:	2085883a 	add	r2,r4,r2
    2ff4:	10c00015 	stw	r3,0(r2)
			arith_encode(cinfo, st, 1);
    2ff8:	e13ffe17 	ldw	r4,-8(fp)
    2ffc:	e17ff117 	ldw	r5,-60(fp)
    3000:	01800044 	movi	r6,1
    3004:	0001a540 	call	1a54 <arith_encode>
			/* Figure F.6: Encoding nonzero value v */
			/* Figure F.7: Encoding the sign of v */
			if (v > 0) {
    3008:	e0bff517 	ldw	r2,-44(fp)
    300c:	0080120e 	bge	zero,r2,3058 <encode_mcu+0x258>
				arith_encode(cinfo, st + 1, 0);	/* Table F.4: SS = S0 + 1 */
    3010:	e0bff117 	ldw	r2,-60(fp)
    3014:	10800044 	addi	r2,r2,1
    3018:	e13ffe17 	ldw	r4,-8(fp)
    301c:	100b883a 	mov	r5,r2
    3020:	000d883a 	mov	r6,zero
    3024:	0001a540 	call	1a54 <arith_encode>
				st += 2;			/* Table F.4: SP = S0 + 2 */
    3028:	e0bff117 	ldw	r2,-60(fp)
    302c:	10800084 	addi	r2,r2,2
    3030:	e0bff115 	stw	r2,-60(fp)
				entropy->dc_context[ci] = 4;	/* small positive diff category */
    3034:	e0fff817 	ldw	r3,-32(fp)
    3038:	e0bffb17 	ldw	r2,-20(fp)
    303c:	10800344 	addi	r2,r2,13
    3040:	1085883a 	add	r2,r2,r2
    3044:	1085883a 	add	r2,r2,r2
    3048:	1885883a 	add	r2,r3,r2
    304c:	00c00104 	movi	r3,4
    3050:	10c00015 	stw	r3,0(r2)
    3054:	00001406 	br	30a8 <encode_mcu+0x2a8>
			} else {
				v = -v;
    3058:	e0bff517 	ldw	r2,-44(fp)
    305c:	0085c83a 	sub	r2,zero,r2
    3060:	e0bff515 	stw	r2,-44(fp)
				arith_encode(cinfo, st + 1, 1);	/* Table F.4: SS = S0 + 1 */
    3064:	e0bff117 	ldw	r2,-60(fp)
    3068:	10800044 	addi	r2,r2,1
    306c:	e13ffe17 	ldw	r4,-8(fp)
    3070:	100b883a 	mov	r5,r2
    3074:	01800044 	movi	r6,1
    3078:	0001a540 	call	1a54 <arith_encode>
				st += 3;			/* Table F.4: SN = S0 + 3 */
    307c:	e0bff117 	ldw	r2,-60(fp)
    3080:	108000c4 	addi	r2,r2,3
    3084:	e0bff115 	stw	r2,-60(fp)
				entropy->dc_context[ci] = 8;	/* small negative diff category */
    3088:	e0fff817 	ldw	r3,-32(fp)
    308c:	e0bffb17 	ldw	r2,-20(fp)
    3090:	10800344 	addi	r2,r2,13
    3094:	1085883a 	add	r2,r2,r2
    3098:	1085883a 	add	r2,r2,r2
    309c:	1885883a 	add	r2,r3,r2
    30a0:	00c00204 	movi	r3,8
    30a4:	10c00015 	stw	r3,0(r2)
			}
			/* Figure F.8: Encoding the magnitude category of v */
			m = 0;
    30a8:	e03ff715 	stw	zero,-36(fp)
			if (v -= 1) {
    30ac:	e0bff517 	ldw	r2,-44(fp)
    30b0:	10bfffc4 	addi	r2,r2,-1
    30b4:	e0bff515 	stw	r2,-44(fp)
    30b8:	e0bff517 	ldw	r2,-44(fp)
    30bc:	10002126 	beq	r2,zero,3144 <encode_mcu+0x344>
				arith_encode(cinfo, st, 1);
    30c0:	e13ffe17 	ldw	r4,-8(fp)
    30c4:	e17ff117 	ldw	r5,-60(fp)
    30c8:	01800044 	movi	r6,1
    30cc:	0001a540 	call	1a54 <arith_encode>
				m = 1;
    30d0:	00800044 	movi	r2,1
    30d4:	e0bff715 	stw	r2,-36(fp)
				v2 = v;
    30d8:	e0bff517 	ldw	r2,-44(fp)
    30dc:	e0bff615 	stw	r2,-40(fp)
				st = entropy->dc_stats[tbl] + 20; /* Table F.4: X1 = 20 */
    30e0:	e0fff817 	ldw	r3,-32(fp)
    30e4:	e0bffd17 	ldw	r2,-12(fp)
    30e8:	108004c4 	addi	r2,r2,19
    30ec:	1085883a 	add	r2,r2,r2
    30f0:	1085883a 	add	r2,r2,r2
    30f4:	1885883a 	add	r2,r3,r2
    30f8:	10800017 	ldw	r2,0(r2)
    30fc:	10800504 	addi	r2,r2,20
    3100:	e0bff115 	stw	r2,-60(fp)
				while (v2 >>= 1) {
    3104:	00000a06 	br	3130 <encode_mcu+0x330>
					arith_encode(cinfo, st, 1);
    3108:	e13ffe17 	ldw	r4,-8(fp)
    310c:	e17ff117 	ldw	r5,-60(fp)
    3110:	01800044 	movi	r6,1
    3114:	0001a540 	call	1a54 <arith_encode>
					m <<= 1;
    3118:	e0bff717 	ldw	r2,-36(fp)
    311c:	1085883a 	add	r2,r2,r2
    3120:	e0bff715 	stw	r2,-36(fp)
					st += 1;
    3124:	e0bff117 	ldw	r2,-60(fp)
    3128:	10800044 	addi	r2,r2,1
    312c:	e0bff115 	stw	r2,-60(fp)
			if (v -= 1) {
				arith_encode(cinfo, st, 1);
				m = 1;
				v2 = v;
				st = entropy->dc_stats[tbl] + 20; /* Table F.4: X1 = 20 */
				while (v2 >>= 1) {
    3130:	e0bff617 	ldw	r2,-40(fp)
    3134:	1005d07a 	srai	r2,r2,1
    3138:	e0bff615 	stw	r2,-40(fp)
    313c:	e0bff617 	ldw	r2,-40(fp)
    3140:	103ff11e 	bne	r2,zero,3108 <encode_mcu+0x308>
					arith_encode(cinfo, st, 1);
					m <<= 1;
					st += 1;
				}
			}
			arith_encode(cinfo, st, 0);
    3144:	e13ffe17 	ldw	r4,-8(fp)
    3148:	e17ff117 	ldw	r5,-60(fp)
    314c:	000d883a 	mov	r6,zero
    3150:	0001a540 	call	1a54 <arith_encode>
			/* Section F.1.4.4.1.2: Establish dc_context conditioning category */
			if (m < (int) ((1L << cinfo->arith_dc_L[tbl]) >> 1))
    3154:	e0fffe17 	ldw	r3,-8(fp)
    3158:	e0bffd17 	ldw	r2,-12(fp)
    315c:	1885883a 	add	r2,r3,r2
    3160:	10802504 	addi	r2,r2,148
    3164:	10800003 	ldbu	r2,0(r2)
    3168:	10803fcc 	andi	r2,r2,255
    316c:	00c00044 	movi	r3,1
    3170:	1884983a 	sll	r2,r3,r2
    3174:	1005d07a 	srai	r2,r2,1
    3178:	e0fff717 	ldw	r3,-36(fp)
    317c:	1880080e 	bge	r3,r2,31a0 <encode_mcu+0x3a0>
				entropy->dc_context[ci] = 0;	/* zero diff category */
    3180:	e0fff817 	ldw	r3,-32(fp)
    3184:	e0bffb17 	ldw	r2,-20(fp)
    3188:	10800344 	addi	r2,r2,13
    318c:	1085883a 	add	r2,r2,r2
    3190:	1085883a 	add	r2,r2,r2
    3194:	1885883a 	add	r2,r3,r2
    3198:	10000015 	stw	zero,0(r2)
    319c:	00001a06 	br	3208 <encode_mcu+0x408>
			else if (m > (int) ((1L << cinfo->arith_dc_U[tbl]) >> 1))
    31a0:	e0fffe17 	ldw	r3,-8(fp)
    31a4:	e0bffd17 	ldw	r2,-12(fp)
    31a8:	1885883a 	add	r2,r3,r2
    31ac:	10802904 	addi	r2,r2,164
    31b0:	10800003 	ldbu	r2,0(r2)
    31b4:	10803fcc 	andi	r2,r2,255
    31b8:	00c00044 	movi	r3,1
    31bc:	1884983a 	sll	r2,r3,r2
    31c0:	1007d07a 	srai	r3,r2,1
    31c4:	e0bff717 	ldw	r2,-36(fp)
    31c8:	18800f0e 	bge	r3,r2,3208 <encode_mcu+0x408>
				entropy->dc_context[ci] += 8;	/* large diff category */
    31cc:	e0fff817 	ldw	r3,-32(fp)
    31d0:	e0bffb17 	ldw	r2,-20(fp)
    31d4:	10800344 	addi	r2,r2,13
    31d8:	1085883a 	add	r2,r2,r2
    31dc:	1085883a 	add	r2,r2,r2
    31e0:	1885883a 	add	r2,r3,r2
    31e4:	10800017 	ldw	r2,0(r2)
    31e8:	10c00204 	addi	r3,r2,8
    31ec:	e13ff817 	ldw	r4,-32(fp)
    31f0:	e0bffb17 	ldw	r2,-20(fp)
    31f4:	10800344 	addi	r2,r2,13
    31f8:	1085883a 	add	r2,r2,r2
    31fc:	1085883a 	add	r2,r2,r2
    3200:	2085883a 	add	r2,r4,r2
    3204:	10c00015 	stw	r3,0(r2)
			/* Figure F.9: Encoding the magnitude bit pattern of v */
			st += 14;
    3208:	e0bff117 	ldw	r2,-60(fp)
    320c:	10800384 	addi	r2,r2,14
    3210:	e0bff115 	stw	r2,-60(fp)
			while (m >>= 1)
    3214:	00000906 	br	323c <encode_mcu+0x43c>
				arith_encode(cinfo, st, (m & v) ? 1 : 0);
    3218:	e0fff717 	ldw	r3,-36(fp)
    321c:	e0bff517 	ldw	r2,-44(fp)
    3220:	1884703a 	and	r2,r3,r2
    3224:	1004c03a 	cmpne	r2,r2,zero
    3228:	10803fcc 	andi	r2,r2,255
    322c:	e13ffe17 	ldw	r4,-8(fp)
    3230:	e17ff117 	ldw	r5,-60(fp)
    3234:	100d883a 	mov	r6,r2
    3238:	0001a540 	call	1a54 <arith_encode>
				entropy->dc_context[ci] = 0;	/* zero diff category */
			else if (m > (int) ((1L << cinfo->arith_dc_U[tbl]) >> 1))
				entropy->dc_context[ci] += 8;	/* large diff category */
			/* Figure F.9: Encoding the magnitude bit pattern of v */
			st += 14;
			while (m >>= 1)
    323c:	e0bff717 	ldw	r2,-36(fp)
    3240:	1005d07a 	srai	r2,r2,1
    3244:	e0bff715 	stw	r2,-36(fp)
    3248:	e0bff717 	ldw	r2,-36(fp)
    324c:	103ff21e 	bne	r2,zero,3218 <encode_mcu+0x418>
				arith_encode(cinfo, st, (m & v) ? 1 : 0);
		}

		/* Sections F.1.4.2 & F.1.4.4.2: Encoding of AC coefficients */

		tbl = compptr->ac_tbl_no;
    3250:	e0bffc17 	ldw	r2,-16(fp)
    3254:	10800617 	ldw	r2,24(r2)
    3258:	e0bffd15 	stw	r2,-12(fp)

		/* Establish EOB (end-of-block) index */
		for (ke = cinfo->lim_Se; ke > 0; ke--)
    325c:	e0bffe17 	ldw	r2,-8(fp)
    3260:	10805b17 	ldw	r2,364(r2)
    3264:	e0bff415 	stw	r2,-48(fp)
    3268:	00001106 	br	32b0 <encode_mcu+0x4b0>
			if ((*block)[natural_order[ke]]) break;
    326c:	e0bff417 	ldw	r2,-48(fp)
    3270:	1085883a 	add	r2,r2,r2
    3274:	1085883a 	add	r2,r2,r2
    3278:	e0fff917 	ldw	r3,-28(fp)
    327c:	1885883a 	add	r2,r3,r2
    3280:	10800017 	ldw	r2,0(r2)
    3284:	e0fffa17 	ldw	r3,-24(fp)
    3288:	1085883a 	add	r2,r2,r2
    328c:	1885883a 	add	r2,r3,r2
    3290:	1080000b 	ldhu	r2,0(r2)
    3294:	10bfffcc 	andi	r2,r2,65535
    3298:	10a0001c 	xori	r2,r2,32768
    329c:	10a00004 	addi	r2,r2,-32768
    32a0:	1000061e 	bne	r2,zero,32bc <encode_mcu+0x4bc>
		/* Sections F.1.4.2 & F.1.4.4.2: Encoding of AC coefficients */

		tbl = compptr->ac_tbl_no;

		/* Establish EOB (end-of-block) index */
		for (ke = cinfo->lim_Se; ke > 0; ke--)
    32a4:	e0bff417 	ldw	r2,-48(fp)
    32a8:	10bfffc4 	addi	r2,r2,-1
    32ac:	e0bff415 	stw	r2,-48(fp)
    32b0:	e0bff417 	ldw	r2,-48(fp)
    32b4:	00bfed16 	blt	zero,r2,326c <encode_mcu+0x46c>
    32b8:	00000106 	br	32c0 <encode_mcu+0x4c0>
			if ((*block)[natural_order[ke]]) break;
    32bc:	0001883a 	nop

		/* Figure F.5: Encode_AC_Coefficients */
		for (k = 1; k <= ke; k++) {
    32c0:	00800044 	movi	r2,1
    32c4:	e0bff315 	stw	r2,-52(fp)
    32c8:	0000a106 	br	3550 <encode_mcu+0x750>
			st = entropy->ac_stats[tbl] + 3 * (k - 1);
    32cc:	e0fff817 	ldw	r3,-32(fp)
    32d0:	e0bffd17 	ldw	r2,-12(fp)
    32d4:	108008c4 	addi	r2,r2,35
    32d8:	1085883a 	add	r2,r2,r2
    32dc:	1085883a 	add	r2,r2,r2
    32e0:	1885883a 	add	r2,r3,r2
    32e4:	11000017 	ldw	r4,0(r2)
    32e8:	e0bff317 	ldw	r2,-52(fp)
    32ec:	10ffffc4 	addi	r3,r2,-1
    32f0:	1805883a 	mov	r2,r3
    32f4:	1085883a 	add	r2,r2,r2
    32f8:	10c5883a 	add	r2,r2,r3
    32fc:	2085883a 	add	r2,r4,r2
    3300:	e0bff115 	stw	r2,-60(fp)
			arith_encode(cinfo, st, 0);	/* EOB decision */
    3304:	e13ffe17 	ldw	r4,-8(fp)
    3308:	e17ff117 	ldw	r5,-60(fp)
    330c:	000d883a 	mov	r6,zero
    3310:	0001a540 	call	1a54 <arith_encode>
			while ((v = (*block)[natural_order[k]]) == 0) {
    3314:	00000c06 	br	3348 <encode_mcu+0x548>
				arith_encode(cinfo, st + 1, 0); st += 3; k++;
    3318:	e0bff117 	ldw	r2,-60(fp)
    331c:	10800044 	addi	r2,r2,1
    3320:	e13ffe17 	ldw	r4,-8(fp)
    3324:	100b883a 	mov	r5,r2
    3328:	000d883a 	mov	r6,zero
    332c:	0001a540 	call	1a54 <arith_encode>
    3330:	e0bff117 	ldw	r2,-60(fp)
    3334:	108000c4 	addi	r2,r2,3
    3338:	e0bff115 	stw	r2,-60(fp)
    333c:	e0bff317 	ldw	r2,-52(fp)
    3340:	10800044 	addi	r2,r2,1
    3344:	e0bff315 	stw	r2,-52(fp)

		/* Figure F.5: Encode_AC_Coefficients */
		for (k = 1; k <= ke; k++) {
			st = entropy->ac_stats[tbl] + 3 * (k - 1);
			arith_encode(cinfo, st, 0);	/* EOB decision */
			while ((v = (*block)[natural_order[k]]) == 0) {
    3348:	e0bff317 	ldw	r2,-52(fp)
    334c:	1085883a 	add	r2,r2,r2
    3350:	1085883a 	add	r2,r2,r2
    3354:	e0fff917 	ldw	r3,-28(fp)
    3358:	1885883a 	add	r2,r3,r2
    335c:	10800017 	ldw	r2,0(r2)
    3360:	e0fffa17 	ldw	r3,-24(fp)
    3364:	1085883a 	add	r2,r2,r2
    3368:	1885883a 	add	r2,r3,r2
    336c:	1080000b 	ldhu	r2,0(r2)
    3370:	10bfffcc 	andi	r2,r2,65535
    3374:	10a0001c 	xori	r2,r2,32768
    3378:	10a00004 	addi	r2,r2,-32768
    337c:	e0bff515 	stw	r2,-44(fp)
    3380:	e0bff517 	ldw	r2,-44(fp)
    3384:	103fe426 	beq	r2,zero,3318 <encode_mcu+0x518>
				arith_encode(cinfo, st + 1, 0); st += 3; k++;
			}
			arith_encode(cinfo, st + 1, 1);
    3388:	e0bff117 	ldw	r2,-60(fp)
    338c:	10800044 	addi	r2,r2,1
    3390:	e13ffe17 	ldw	r4,-8(fp)
    3394:	100b883a 	mov	r5,r2
    3398:	01800044 	movi	r6,1
    339c:	0001a540 	call	1a54 <arith_encode>
			/* Figure F.6: Encoding nonzero value v */
			/* Figure F.7: Encoding the sign of v */
			if (v > 0) {
    33a0:	e0bff517 	ldw	r2,-44(fp)
    33a4:	0080070e 	bge	zero,r2,33c4 <encode_mcu+0x5c4>
				arith_encode(cinfo, entropy->fixed_bin, 0);
    33a8:	e0bff817 	ldw	r2,-32(fp)
    33ac:	10803304 	addi	r2,r2,204
    33b0:	e13ffe17 	ldw	r4,-8(fp)
    33b4:	100b883a 	mov	r5,r2
    33b8:	000d883a 	mov	r6,zero
    33bc:	0001a540 	call	1a54 <arith_encode>
    33c0:	00000906 	br	33e8 <encode_mcu+0x5e8>
			} else {
				v = -v;
    33c4:	e0bff517 	ldw	r2,-44(fp)
    33c8:	0085c83a 	sub	r2,zero,r2
    33cc:	e0bff515 	stw	r2,-44(fp)
				arith_encode(cinfo, entropy->fixed_bin, 1);
    33d0:	e0bff817 	ldw	r2,-32(fp)
    33d4:	10803304 	addi	r2,r2,204
    33d8:	e13ffe17 	ldw	r4,-8(fp)
    33dc:	100b883a 	mov	r5,r2
    33e0:	01800044 	movi	r6,1
    33e4:	0001a540 	call	1a54 <arith_encode>
			}
			st += 2;
    33e8:	e0bff117 	ldw	r2,-60(fp)
    33ec:	10800084 	addi	r2,r2,2
    33f0:	e0bff115 	stw	r2,-60(fp)
			/* Figure F.8: Encoding the magnitude category of v */
			m = 0;
    33f4:	e03ff715 	stw	zero,-36(fp)
			if (v -= 1) {
    33f8:	e0bff517 	ldw	r2,-44(fp)
    33fc:	10bfffc4 	addi	r2,r2,-1
    3400:	e0bff515 	stw	r2,-44(fp)
    3404:	e0bff517 	ldw	r2,-44(fp)
    3408:	10003826 	beq	r2,zero,34ec <encode_mcu+0x6ec>
				arith_encode(cinfo, st, 1);
    340c:	e13ffe17 	ldw	r4,-8(fp)
    3410:	e17ff117 	ldw	r5,-60(fp)
    3414:	01800044 	movi	r6,1
    3418:	0001a540 	call	1a54 <arith_encode>
				m = 1;
    341c:	00800044 	movi	r2,1
    3420:	e0bff715 	stw	r2,-36(fp)
				v2 = v;
    3424:	e0bff517 	ldw	r2,-44(fp)
    3428:	e0bff615 	stw	r2,-40(fp)
				if (v2 >>= 1) {
    342c:	e0bff617 	ldw	r2,-40(fp)
    3430:	1005d07a 	srai	r2,r2,1
    3434:	e0bff615 	stw	r2,-40(fp)
    3438:	e0bff617 	ldw	r2,-40(fp)
    343c:	10002b26 	beq	r2,zero,34ec <encode_mcu+0x6ec>
					arith_encode(cinfo, st, 1);
    3440:	e13ffe17 	ldw	r4,-8(fp)
    3444:	e17ff117 	ldw	r5,-60(fp)
    3448:	01800044 	movi	r6,1
    344c:	0001a540 	call	1a54 <arith_encode>
					m <<= 1;
    3450:	e0bff717 	ldw	r2,-36(fp)
    3454:	1085883a 	add	r2,r2,r2
    3458:	e0bff715 	stw	r2,-36(fp)
					st = entropy->ac_stats[tbl] +
    345c:	e0fff817 	ldw	r3,-32(fp)
    3460:	e0bffd17 	ldw	r2,-12(fp)
    3464:	108008c4 	addi	r2,r2,35
    3468:	1085883a 	add	r2,r2,r2
    346c:	1085883a 	add	r2,r2,r2
    3470:	1885883a 	add	r2,r3,r2
    3474:	10c00017 	ldw	r3,0(r2)
						(k <= cinfo->arith_ac_K[tbl] ? 189 : 217);
    3478:	e13ffe17 	ldw	r4,-8(fp)
    347c:	e0bffd17 	ldw	r2,-12(fp)
    3480:	2085883a 	add	r2,r4,r2
    3484:	10802d04 	addi	r2,r2,180
    3488:	10800003 	ldbu	r2,0(r2)
    348c:	11003fcc 	andi	r4,r2,255
				m = 1;
				v2 = v;
				if (v2 >>= 1) {
					arith_encode(cinfo, st, 1);
					m <<= 1;
					st = entropy->ac_stats[tbl] +
    3490:	e0bff317 	ldw	r2,-52(fp)
    3494:	20800216 	blt	r4,r2,34a0 <encode_mcu+0x6a0>
    3498:	00802f44 	movi	r2,189
    349c:	00000106 	br	34a4 <encode_mcu+0x6a4>
    34a0:	00803644 	movi	r2,217
    34a4:	1885883a 	add	r2,r3,r2
    34a8:	e0bff115 	stw	r2,-60(fp)
						(k <= cinfo->arith_ac_K[tbl] ? 189 : 217);
					while (v2 >>= 1) {
    34ac:	00000a06 	br	34d8 <encode_mcu+0x6d8>
						arith_encode(cinfo, st, 1);
    34b0:	e13ffe17 	ldw	r4,-8(fp)
    34b4:	e17ff117 	ldw	r5,-60(fp)
    34b8:	01800044 	movi	r6,1
    34bc:	0001a540 	call	1a54 <arith_encode>
						m <<= 1;
    34c0:	e0bff717 	ldw	r2,-36(fp)
    34c4:	1085883a 	add	r2,r2,r2
    34c8:	e0bff715 	stw	r2,-36(fp)
						st += 1;
    34cc:	e0bff117 	ldw	r2,-60(fp)
    34d0:	10800044 	addi	r2,r2,1
    34d4:	e0bff115 	stw	r2,-60(fp)
				if (v2 >>= 1) {
					arith_encode(cinfo, st, 1);
					m <<= 1;
					st = entropy->ac_stats[tbl] +
						(k <= cinfo->arith_ac_K[tbl] ? 189 : 217);
					while (v2 >>= 1) {
    34d8:	e0bff617 	ldw	r2,-40(fp)
    34dc:	1005d07a 	srai	r2,r2,1
    34e0:	e0bff615 	stw	r2,-40(fp)
    34e4:	e0bff617 	ldw	r2,-40(fp)
    34e8:	103ff11e 	bne	r2,zero,34b0 <encode_mcu+0x6b0>
						m <<= 1;
						st += 1;
					}
				}
			}
			arith_encode(cinfo, st, 0);
    34ec:	e13ffe17 	ldw	r4,-8(fp)
    34f0:	e17ff117 	ldw	r5,-60(fp)
    34f4:	000d883a 	mov	r6,zero
    34f8:	0001a540 	call	1a54 <arith_encode>
			/* Figure F.9: Encoding the magnitude bit pattern of v */
			st += 14;
    34fc:	e0bff117 	ldw	r2,-60(fp)
    3500:	10800384 	addi	r2,r2,14
    3504:	e0bff115 	stw	r2,-60(fp)
			while (m >>= 1)
    3508:	00000906 	br	3530 <encode_mcu+0x730>
				arith_encode(cinfo, st, (m & v) ? 1 : 0);
    350c:	e0fff717 	ldw	r3,-36(fp)
    3510:	e0bff517 	ldw	r2,-44(fp)
    3514:	1884703a 	and	r2,r3,r2
    3518:	1004c03a 	cmpne	r2,r2,zero
    351c:	10803fcc 	andi	r2,r2,255
    3520:	e13ffe17 	ldw	r4,-8(fp)
    3524:	e17ff117 	ldw	r5,-60(fp)
    3528:	100d883a 	mov	r6,r2
    352c:	0001a540 	call	1a54 <arith_encode>
				}
			}
			arith_encode(cinfo, st, 0);
			/* Figure F.9: Encoding the magnitude bit pattern of v */
			st += 14;
			while (m >>= 1)
    3530:	e0bff717 	ldw	r2,-36(fp)
    3534:	1005d07a 	srai	r2,r2,1
    3538:	e0bff715 	stw	r2,-36(fp)
    353c:	e0bff717 	ldw	r2,-36(fp)
    3540:	103ff21e 	bne	r2,zero,350c <encode_mcu+0x70c>
		/* Establish EOB (end-of-block) index */
		for (ke = cinfo->lim_Se; ke > 0; ke--)
			if ((*block)[natural_order[ke]]) break;

		/* Figure F.5: Encode_AC_Coefficients */
		for (k = 1; k <= ke; k++) {
    3544:	e0bff317 	ldw	r2,-52(fp)
    3548:	10800044 	addi	r2,r2,1
    354c:	e0bff315 	stw	r2,-52(fp)
    3550:	e0bff317 	ldw	r2,-52(fp)
    3554:	e0fff417 	ldw	r3,-48(fp)
    3558:	18bf5c0e 	bge	r3,r2,32cc <encode_mcu+0x4cc>
			st += 14;
			while (m >>= 1)
				arith_encode(cinfo, st, (m & v) ? 1 : 0);
		}
		/* Encode EOB decision only if k <= cinfo->lim_Se */
		if (k <= cinfo->lim_Se) {
    355c:	e0bffe17 	ldw	r2,-8(fp)
    3560:	10c05b17 	ldw	r3,364(r2)
    3564:	e0bff317 	ldw	r2,-52(fp)
    3568:	18801216 	blt	r3,r2,35b4 <encode_mcu+0x7b4>
			st = entropy->ac_stats[tbl] + 3 * (k - 1);
    356c:	e0fff817 	ldw	r3,-32(fp)
    3570:	e0bffd17 	ldw	r2,-12(fp)
    3574:	108008c4 	addi	r2,r2,35
    3578:	1085883a 	add	r2,r2,r2
    357c:	1085883a 	add	r2,r2,r2
    3580:	1885883a 	add	r2,r3,r2
    3584:	11000017 	ldw	r4,0(r2)
    3588:	e0bff317 	ldw	r2,-52(fp)
    358c:	10ffffc4 	addi	r3,r2,-1
    3590:	1805883a 	mov	r2,r3
    3594:	1085883a 	add	r2,r2,r2
    3598:	10c5883a 	add	r2,r2,r3
    359c:	2085883a 	add	r2,r4,r2
    35a0:	e0bff115 	stw	r2,-60(fp)
			arith_encode(cinfo, st, 1);
    35a4:	e13ffe17 	ldw	r4,-8(fp)
    35a8:	e17ff117 	ldw	r5,-60(fp)
    35ac:	01800044 	movi	r6,1
    35b0:	0001a540 	call	1a54 <arith_encode>
	}

	natural_order = cinfo->natural_order;

	/* Encode the MCU data blocks */
	for (blkn = 0; blkn < cinfo->blocks_in_MCU; blkn++) {
    35b4:	e0bff217 	ldw	r2,-56(fp)
    35b8:	10800044 	addi	r2,r2,1
    35bc:	e0bff215 	stw	r2,-56(fp)
    35c0:	e0bffe17 	ldw	r2,-8(fp)
    35c4:	10804a17 	ldw	r2,296(r2)
    35c8:	e0fff217 	ldw	r3,-56(fp)
    35cc:	18be3816 	blt	r3,r2,2eb0 <encode_mcu+0xb0>
			st = entropy->ac_stats[tbl] + 3 * (k - 1);
			arith_encode(cinfo, st, 1);
		}
	}

	return TRUE;
    35d0:	00800044 	movi	r2,1
}
    35d4:	e037883a 	mov	sp,fp
    35d8:	dfc00117 	ldw	ra,4(sp)
    35dc:	df000017 	ldw	fp,0(sp)
    35e0:	dec00204 	addi	sp,sp,8
    35e4:	f800283a 	ret

000035e8 <start_pass>:
* Initialize for an arithmetic-compressed scan.
*/

METHODDEF(void)
	start_pass (j_compress_ptr cinfo, boolean gather_statistics)
{
    35e8:	defff804 	addi	sp,sp,-32
    35ec:	dfc00715 	stw	ra,28(sp)
    35f0:	df000615 	stw	fp,24(sp)
    35f4:	df000604 	addi	fp,sp,24
    35f8:	e13ffe15 	stw	r4,-8(fp)
    35fc:	2805883a 	mov	r2,r5
    3600:	e0bfff05 	stb	r2,-4(fp)
	arith_entropy_ptr entropy = (arith_entropy_ptr) cinfo->entropy;
    3604:	e0bffe17 	ldw	r2,-8(fp)
    3608:	10806417 	ldw	r2,400(r2)
    360c:	e0bffb15 	stw	r2,-20(fp)
	int ci, tbl;
	jpeg_component_info * compptr;

	if (gather_statistics)
    3610:	e0bfff03 	ldbu	r2,-4(fp)
    3614:	10000926 	beq	r2,zero,363c <start_pass+0x54>
		/* Make sure to avoid that in the master control logic!
		* We are fully adaptive here and need no extra
		* statistics gathering pass!
		*/
		ERREXIT(cinfo, JERR_NOT_COMPILED);
    3618:	e0bffe17 	ldw	r2,-8(fp)
    361c:	10800017 	ldw	r2,0(r2)
    3620:	00c00c44 	movi	r3,49
    3624:	10c00515 	stw	r3,20(r2)
    3628:	e0bffe17 	ldw	r2,-8(fp)
    362c:	10800017 	ldw	r2,0(r2)
    3630:	10800017 	ldw	r2,0(r2)
    3634:	e13ffe17 	ldw	r4,-8(fp)
    3638:	103ee83a 	callr	r2

	/* We assume jcmaster.c already validated the progressive scan parameters. */

	/* Select execution routines */
	if (cinfo->progressive_mode) {
    363c:	e0bffe17 	ldw	r2,-8(fp)
    3640:	10803d03 	ldbu	r2,244(r2)
    3644:	10803fcc 	andi	r2,r2,255
    3648:	10001d26 	beq	r2,zero,36c0 <start_pass+0xd8>
		if (cinfo->Ah == 0) {
    364c:	e0bffe17 	ldw	r2,-8(fp)
    3650:	10805717 	ldw	r2,348(r2)
    3654:	10000d1e 	bne	r2,zero,368c <start_pass+0xa4>
			if (cinfo->Ss == 0)
    3658:	e0bffe17 	ldw	r2,-8(fp)
    365c:	10805517 	ldw	r2,340(r2)
    3660:	1000051e 	bne	r2,zero,3678 <start_pass+0x90>
				entropy->pub.encode_mcu = encode_mcu_DC_first;
    3664:	e0bffb17 	ldw	r2,-20(fp)
    3668:	00c00034 	movhi	r3,0
    366c:	18c7bc04 	addi	r3,r3,7920
    3670:	10c00115 	stw	r3,4(r2)
    3674:	00001606 	br	36d0 <start_pass+0xe8>
			else
				entropy->pub.encode_mcu = encode_mcu_AC_first;
    3678:	e0bffb17 	ldw	r2,-20(fp)
    367c:	00c00034 	movhi	r3,0
    3680:	18c8d904 	addi	r3,r3,9060
    3684:	10c00115 	stw	r3,4(r2)
    3688:	00001106 	br	36d0 <start_pass+0xe8>
		} else {
			if (cinfo->Ss == 0)
    368c:	e0bffe17 	ldw	r2,-8(fp)
    3690:	10805517 	ldw	r2,340(r2)
    3694:	1000051e 	bne	r2,zero,36ac <start_pass+0xc4>
				entropy->pub.encode_mcu = encode_mcu_DC_refine;
    3698:	e0bffb17 	ldw	r2,-20(fp)
    369c:	00c00034 	movhi	r3,0
    36a0:	18ca0e04 	addi	r3,r3,10296
    36a4:	10c00115 	stw	r3,4(r2)
    36a8:	00000906 	br	36d0 <start_pass+0xe8>
			else
				entropy->pub.encode_mcu = encode_mcu_AC_refine;
    36ac:	e0bffb17 	ldw	r2,-20(fp)
    36b0:	00c00034 	movhi	r3,0
    36b4:	18ca5b04 	addi	r3,r3,10604
    36b8:	10c00115 	stw	r3,4(r2)
    36bc:	00000406 	br	36d0 <start_pass+0xe8>
		}
	} else
		entropy->pub.encode_mcu = encode_mcu;
    36c0:	e0bffb17 	ldw	r2,-20(fp)
    36c4:	00c00034 	movhi	r3,0
    36c8:	18cb8004 	addi	r3,r3,11776
    36cc:	10c00115 	stw	r3,4(r2)

	/* Allocate & initialize requested statistics areas */
	for (ci = 0; ci < cinfo->comps_in_scan; ci++) {
    36d0:	e03ffa15 	stw	zero,-24(fp)
    36d4:	00009006 	br	3918 <start_pass+0x330>
		compptr = cinfo->cur_comp_info[ci];
    36d8:	e0fffe17 	ldw	r3,-8(fp)
    36dc:	e0bffa17 	ldw	r2,-24(fp)
    36e0:	10801104 	addi	r2,r2,68
    36e4:	1085883a 	add	r2,r2,r2
    36e8:	1085883a 	add	r2,r2,r2
    36ec:	1885883a 	add	r2,r3,r2
    36f0:	10800017 	ldw	r2,0(r2)
    36f4:	e0bffc15 	stw	r2,-16(fp)
		/* DC needs no table for refinement scan */
		if (cinfo->Ss == 0 && cinfo->Ah == 0) {
    36f8:	e0bffe17 	ldw	r2,-8(fp)
    36fc:	10805517 	ldw	r2,340(r2)
    3700:	1000481e 	bne	r2,zero,3824 <start_pass+0x23c>
    3704:	e0bffe17 	ldw	r2,-8(fp)
    3708:	10805717 	ldw	r2,348(r2)
    370c:	1000451e 	bne	r2,zero,3824 <start_pass+0x23c>
			tbl = compptr->dc_tbl_no;
    3710:	e0bffc17 	ldw	r2,-16(fp)
    3714:	10800517 	ldw	r2,20(r2)
    3718:	e0bffd15 	stw	r2,-12(fp)
			if (tbl < 0 || tbl >= NUM_ARITH_TBLS)
    371c:	e0bffd17 	ldw	r2,-12(fp)
    3720:	10000316 	blt	r2,zero,3730 <start_pass+0x148>
    3724:	e0bffd17 	ldw	r2,-12(fp)
    3728:	10800410 	cmplti	r2,r2,16
    372c:	10000d1e 	bne	r2,zero,3764 <start_pass+0x17c>
				ERREXIT1(cinfo, JERR_NO_ARITH_TABLE, tbl);
    3730:	e0bffe17 	ldw	r2,-8(fp)
    3734:	10800017 	ldw	r2,0(r2)
    3738:	00c00c84 	movi	r3,50
    373c:	10c00515 	stw	r3,20(r2)
    3740:	e0bffe17 	ldw	r2,-8(fp)
    3744:	10800017 	ldw	r2,0(r2)
    3748:	e0fffd17 	ldw	r3,-12(fp)
    374c:	10c00615 	stw	r3,24(r2)
    3750:	e0bffe17 	ldw	r2,-8(fp)
    3754:	10800017 	ldw	r2,0(r2)
    3758:	10800017 	ldw	r2,0(r2)
    375c:	e13ffe17 	ldw	r4,-8(fp)
    3760:	103ee83a 	callr	r2
			if (entropy->dc_stats[tbl] == NULL)
    3764:	e0fffb17 	ldw	r3,-20(fp)
    3768:	e0bffd17 	ldw	r2,-12(fp)
    376c:	108004c4 	addi	r2,r2,19
    3770:	1085883a 	add	r2,r2,r2
    3774:	1085883a 	add	r2,r2,r2
    3778:	1885883a 	add	r2,r3,r2
    377c:	10800017 	ldw	r2,0(r2)
    3780:	10000f1e 	bne	r2,zero,37c0 <start_pass+0x1d8>
				entropy->dc_stats[tbl] = (unsigned char *) (*cinfo->mem->alloc_small)
    3784:	e0bffe17 	ldw	r2,-8(fp)
    3788:	10800117 	ldw	r2,4(r2)
				((j_common_ptr) cinfo, JPOOL_IMAGE, DC_STAT_BINS);
    378c:	10800017 	ldw	r2,0(r2)
    3790:	e13ffe17 	ldw	r4,-8(fp)
    3794:	01400044 	movi	r5,1
    3798:	01801004 	movi	r6,64
    379c:	103ee83a 	callr	r2
    37a0:	1007883a 	mov	r3,r2
		if (cinfo->Ss == 0 && cinfo->Ah == 0) {
			tbl = compptr->dc_tbl_no;
			if (tbl < 0 || tbl >= NUM_ARITH_TBLS)
				ERREXIT1(cinfo, JERR_NO_ARITH_TABLE, tbl);
			if (entropy->dc_stats[tbl] == NULL)
				entropy->dc_stats[tbl] = (unsigned char *) (*cinfo->mem->alloc_small)
    37a4:	e13ffb17 	ldw	r4,-20(fp)
    37a8:	e0bffd17 	ldw	r2,-12(fp)
    37ac:	108004c4 	addi	r2,r2,19
    37b0:	1085883a 	add	r2,r2,r2
    37b4:	1085883a 	add	r2,r2,r2
    37b8:	2085883a 	add	r2,r4,r2
    37bc:	10c00015 	stw	r3,0(r2)
				((j_common_ptr) cinfo, JPOOL_IMAGE, DC_STAT_BINS);
			MEMZERO(entropy->dc_stats[tbl], DC_STAT_BINS);
    37c0:	e0fffb17 	ldw	r3,-20(fp)
    37c4:	e0bffd17 	ldw	r2,-12(fp)
    37c8:	108004c4 	addi	r2,r2,19
    37cc:	1085883a 	add	r2,r2,r2
    37d0:	1085883a 	add	r2,r2,r2
    37d4:	1885883a 	add	r2,r3,r2
    37d8:	10800017 	ldw	r2,0(r2)
    37dc:	1009883a 	mov	r4,r2
    37e0:	000b883a 	mov	r5,zero
    37e4:	01801004 	movi	r6,64
    37e8:	002ecd40 	call	2ecd4 <memset>
			/* Initialize DC predictions to 0 */
			entropy->last_dc_val[ci] = 0;
    37ec:	e0fffb17 	ldw	r3,-20(fp)
    37f0:	e0bffa17 	ldw	r2,-24(fp)
    37f4:	10800244 	addi	r2,r2,9
    37f8:	1085883a 	add	r2,r2,r2
    37fc:	1085883a 	add	r2,r2,r2
    3800:	1885883a 	add	r2,r3,r2
    3804:	10000015 	stw	zero,0(r2)
			entropy->dc_context[ci] = 0;
    3808:	e0fffb17 	ldw	r3,-20(fp)
    380c:	e0bffa17 	ldw	r2,-24(fp)
    3810:	10800344 	addi	r2,r2,13
    3814:	1085883a 	add	r2,r2,r2
    3818:	1085883a 	add	r2,r2,r2
    381c:	1885883a 	add	r2,r3,r2
    3820:	10000015 	stw	zero,0(r2)
		}
		/* AC needs no table when not present */
		if (cinfo->Se) {
    3824:	e0bffe17 	ldw	r2,-8(fp)
    3828:	10805617 	ldw	r2,344(r2)
    382c:	10003726 	beq	r2,zero,390c <start_pass+0x324>
			tbl = compptr->ac_tbl_no;
    3830:	e0bffc17 	ldw	r2,-16(fp)
    3834:	10800617 	ldw	r2,24(r2)
    3838:	e0bffd15 	stw	r2,-12(fp)
			if (tbl < 0 || tbl >= NUM_ARITH_TBLS)
    383c:	e0bffd17 	ldw	r2,-12(fp)
    3840:	10000316 	blt	r2,zero,3850 <start_pass+0x268>
    3844:	e0bffd17 	ldw	r2,-12(fp)
    3848:	10800410 	cmplti	r2,r2,16
    384c:	10000d1e 	bne	r2,zero,3884 <start_pass+0x29c>
				ERREXIT1(cinfo, JERR_NO_ARITH_TABLE, tbl);
    3850:	e0bffe17 	ldw	r2,-8(fp)
    3854:	10800017 	ldw	r2,0(r2)
    3858:	00c00c84 	movi	r3,50
    385c:	10c00515 	stw	r3,20(r2)
    3860:	e0bffe17 	ldw	r2,-8(fp)
    3864:	10800017 	ldw	r2,0(r2)
    3868:	e0fffd17 	ldw	r3,-12(fp)
    386c:	10c00615 	stw	r3,24(r2)
    3870:	e0bffe17 	ldw	r2,-8(fp)
    3874:	10800017 	ldw	r2,0(r2)
    3878:	10800017 	ldw	r2,0(r2)
    387c:	e13ffe17 	ldw	r4,-8(fp)
    3880:	103ee83a 	callr	r2
			if (entropy->ac_stats[tbl] == NULL)
    3884:	e0fffb17 	ldw	r3,-20(fp)
    3888:	e0bffd17 	ldw	r2,-12(fp)
    388c:	108008c4 	addi	r2,r2,35
    3890:	1085883a 	add	r2,r2,r2
    3894:	1085883a 	add	r2,r2,r2
    3898:	1885883a 	add	r2,r3,r2
    389c:	10800017 	ldw	r2,0(r2)
    38a0:	10000f1e 	bne	r2,zero,38e0 <start_pass+0x2f8>
				entropy->ac_stats[tbl] = (unsigned char *) (*cinfo->mem->alloc_small)
    38a4:	e0bffe17 	ldw	r2,-8(fp)
    38a8:	10800117 	ldw	r2,4(r2)
				((j_common_ptr) cinfo, JPOOL_IMAGE, AC_STAT_BINS);
    38ac:	10800017 	ldw	r2,0(r2)
    38b0:	e13ffe17 	ldw	r4,-8(fp)
    38b4:	01400044 	movi	r5,1
    38b8:	01804004 	movi	r6,256
    38bc:	103ee83a 	callr	r2
    38c0:	1007883a 	mov	r3,r2
		if (cinfo->Se) {
			tbl = compptr->ac_tbl_no;
			if (tbl < 0 || tbl >= NUM_ARITH_TBLS)
				ERREXIT1(cinfo, JERR_NO_ARITH_TABLE, tbl);
			if (entropy->ac_stats[tbl] == NULL)
				entropy->ac_stats[tbl] = (unsigned char *) (*cinfo->mem->alloc_small)
    38c4:	e13ffb17 	ldw	r4,-20(fp)
    38c8:	e0bffd17 	ldw	r2,-12(fp)
    38cc:	108008c4 	addi	r2,r2,35
    38d0:	1085883a 	add	r2,r2,r2
    38d4:	1085883a 	add	r2,r2,r2
    38d8:	2085883a 	add	r2,r4,r2
    38dc:	10c00015 	stw	r3,0(r2)
				((j_common_ptr) cinfo, JPOOL_IMAGE, AC_STAT_BINS);
			MEMZERO(entropy->ac_stats[tbl], AC_STAT_BINS);
    38e0:	e0fffb17 	ldw	r3,-20(fp)
    38e4:	e0bffd17 	ldw	r2,-12(fp)
    38e8:	108008c4 	addi	r2,r2,35
    38ec:	1085883a 	add	r2,r2,r2
    38f0:	1085883a 	add	r2,r2,r2
    38f4:	1885883a 	add	r2,r3,r2
    38f8:	10800017 	ldw	r2,0(r2)
    38fc:	1009883a 	mov	r4,r2
    3900:	000b883a 	mov	r5,zero
    3904:	01804004 	movi	r6,256
    3908:	002ecd40 	call	2ecd4 <memset>
		}
	} else
		entropy->pub.encode_mcu = encode_mcu;

	/* Allocate & initialize requested statistics areas */
	for (ci = 0; ci < cinfo->comps_in_scan; ci++) {
    390c:	e0bffa17 	ldw	r2,-24(fp)
    3910:	10800044 	addi	r2,r2,1
    3914:	e0bffa15 	stw	r2,-24(fp)
    3918:	e0bffe17 	ldw	r2,-8(fp)
    391c:	10804317 	ldw	r2,268(r2)
    3920:	e0fffa17 	ldw	r3,-24(fp)
    3924:	18bf6c16 	blt	r3,r2,36d8 <start_pass+0xf0>
#endif
		}
	}

	/* Initialize arithmetic encoding variables */
	entropy->c = 0;
    3928:	e0bffb17 	ldw	r2,-20(fp)
    392c:	10000315 	stw	zero,12(r2)
	entropy->a = 0x10000L;
    3930:	e0bffb17 	ldw	r2,-20(fp)
    3934:	00c00074 	movhi	r3,1
    3938:	10c00415 	stw	r3,16(r2)
	entropy->sc = 0;
    393c:	e0bffb17 	ldw	r2,-20(fp)
    3940:	10000515 	stw	zero,20(r2)
	entropy->zc = 0;
    3944:	e0bffb17 	ldw	r2,-20(fp)
    3948:	10000615 	stw	zero,24(r2)
	entropy->ct = 11;
    394c:	e0bffb17 	ldw	r2,-20(fp)
    3950:	00c002c4 	movi	r3,11
    3954:	10c00715 	stw	r3,28(r2)
	entropy->buffer = -1;  /* empty */
    3958:	e0bffb17 	ldw	r2,-20(fp)
    395c:	00ffffc4 	movi	r3,-1
    3960:	10c00815 	stw	r3,32(r2)

	/* Initialize restart stuff */
	entropy->restarts_to_go = cinfo->restart_interval;
    3964:	e0bffe17 	ldw	r2,-8(fp)
    3968:	10c03717 	ldw	r3,220(r2)
    396c:	e0bffb17 	ldw	r2,-20(fp)
    3970:	10c01115 	stw	r3,68(r2)
	entropy->next_restart_num = 0;
    3974:	e0bffb17 	ldw	r2,-20(fp)
    3978:	10001215 	stw	zero,72(r2)
}
    397c:	e037883a 	mov	sp,fp
    3980:	dfc00117 	ldw	ra,4(sp)
    3984:	df000017 	ldw	fp,0(sp)
    3988:	dec00204 	addi	sp,sp,8
    398c:	f800283a 	ret

00003990 <jinit_arith_encoder>:
* Module initialization routine for arithmetic entropy encoding.
*/

GLOBAL(void)
	jinit_arith_encoder (j_compress_ptr cinfo)
{
    3990:	defffb04 	addi	sp,sp,-20
    3994:	dfc00415 	stw	ra,16(sp)
    3998:	df000315 	stw	fp,12(sp)
    399c:	df000304 	addi	fp,sp,12
    39a0:	e13fff15 	stw	r4,-4(fp)
	arith_entropy_ptr entropy;
	int i;

	entropy = (arith_entropy_ptr)
		(*cinfo->mem->alloc_small) ((j_common_ptr) cinfo, JPOOL_IMAGE,
    39a4:	e0bfff17 	ldw	r2,-4(fp)
    39a8:	10800117 	ldw	r2,4(r2)
    39ac:	10800017 	ldw	r2,0(r2)
	jinit_arith_encoder (j_compress_ptr cinfo)
{
	arith_entropy_ptr entropy;
	int i;

	entropy = (arith_entropy_ptr)
    39b0:	e13fff17 	ldw	r4,-4(fp)
    39b4:	01400044 	movi	r5,1
    39b8:	01803404 	movi	r6,208
    39bc:	103ee83a 	callr	r2
    39c0:	e0bffe15 	stw	r2,-8(fp)
		(*cinfo->mem->alloc_small) ((j_common_ptr) cinfo, JPOOL_IMAGE,
		SIZEOF(arith_entropy_encoder));
	cinfo->entropy = (struct jpeg_entropy_encoder *) entropy;
    39c4:	e0bfff17 	ldw	r2,-4(fp)
    39c8:	e0fffe17 	ldw	r3,-8(fp)
    39cc:	10c06415 	stw	r3,400(r2)
	entropy->pub.start_pass = start_pass;
    39d0:	e0bffe17 	ldw	r2,-8(fp)
    39d4:	00c00034 	movhi	r3,0
    39d8:	18cd7a04 	addi	r3,r3,13800
    39dc:	10c00015 	stw	r3,0(r2)
	entropy->pub.finish_pass = finish_pass;
    39e0:	e0bffe17 	ldw	r2,-8(fp)
    39e4:	00c00034 	movhi	r3,0
    39e8:	18c5c804 	addi	r3,r3,5920
    39ec:	10c00215 	stw	r3,8(r2)

	/* Mark tables unallocated */
	for (i = 0; i < NUM_ARITH_TBLS; i++) {
    39f0:	e03ffd15 	stw	zero,-12(fp)
    39f4:	00001106 	br	3a3c <jinit_arith_encoder+0xac>
		entropy->dc_stats[i] = NULL;
    39f8:	e0fffe17 	ldw	r3,-8(fp)
    39fc:	e0bffd17 	ldw	r2,-12(fp)
    3a00:	108004c4 	addi	r2,r2,19
    3a04:	1085883a 	add	r2,r2,r2
    3a08:	1085883a 	add	r2,r2,r2
    3a0c:	1885883a 	add	r2,r3,r2
    3a10:	10000015 	stw	zero,0(r2)
		entropy->ac_stats[i] = NULL;
    3a14:	e0fffe17 	ldw	r3,-8(fp)
    3a18:	e0bffd17 	ldw	r2,-12(fp)
    3a1c:	108008c4 	addi	r2,r2,35
    3a20:	1085883a 	add	r2,r2,r2
    3a24:	1085883a 	add	r2,r2,r2
    3a28:	1885883a 	add	r2,r3,r2
    3a2c:	10000015 	stw	zero,0(r2)
	cinfo->entropy = (struct jpeg_entropy_encoder *) entropy;
	entropy->pub.start_pass = start_pass;
	entropy->pub.finish_pass = finish_pass;

	/* Mark tables unallocated */
	for (i = 0; i < NUM_ARITH_TBLS; i++) {
    3a30:	e0bffd17 	ldw	r2,-12(fp)
    3a34:	10800044 	addi	r2,r2,1
    3a38:	e0bffd15 	stw	r2,-12(fp)
    3a3c:	e0bffd17 	ldw	r2,-12(fp)
    3a40:	10800410 	cmplti	r2,r2,16
    3a44:	103fec1e 	bne	r2,zero,39f8 <jinit_arith_encoder+0x68>
		entropy->dc_stats[i] = NULL;
		entropy->ac_stats[i] = NULL;
	}

	/* Initialize index for fixed probability estimation */
	entropy->fixed_bin[0] = 113;
    3a48:	e0bffe17 	ldw	r2,-8(fp)
    3a4c:	00c01c44 	movi	r3,113
    3a50:	10c03305 	stb	r3,204(r2)
}
    3a54:	e037883a 	mov	sp,fp
    3a58:	dfc00117 	ldw	ra,4(sp)
    3a5c:	df000017 	ldw	fp,0(sp)
    3a60:	dec00204 	addi	sp,sp,8
    3a64:	f800283a 	ret

00003a68 <start_iMCU_row>:


LOCAL(void)
	start_iMCU_row (j_compress_ptr cinfo)
	/* Reset within-iMCU-row counters for a new row */
{
    3a68:	defffd04 	addi	sp,sp,-12
    3a6c:	df000215 	stw	fp,8(sp)
    3a70:	df000204 	addi	fp,sp,8
    3a74:	e13fff15 	stw	r4,-4(fp)
	my_coef_ptr coef = (my_coef_ptr) cinfo->coef;
    3a78:	e0bfff17 	ldw	r2,-4(fp)
    3a7c:	10805f17 	ldw	r2,380(r2)
    3a80:	e0bffe15 	stw	r2,-8(fp)

	/* In an interleaved scan, an MCU row is the same as an iMCU row.
	* In a noninterleaved scan, an iMCU row has v_samp_factor MCU rows.
	* But at the bottom of the image, process only what's left.
	*/
	if (cinfo->comps_in_scan > 1) {
    3a84:	e0bfff17 	ldw	r2,-4(fp)
    3a88:	10804317 	ldw	r2,268(r2)
    3a8c:	10800090 	cmplti	r2,r2,2
    3a90:	1000041e 	bne	r2,zero,3aa4 <start_iMCU_row+0x3c>
		coef->MCU_rows_per_iMCU_row = 1;
    3a94:	e0bffe17 	ldw	r2,-8(fp)
    3a98:	00c00044 	movi	r3,1
    3a9c:	10c00515 	stw	r3,20(r2)
    3aa0:	00001106 	br	3ae8 <start_iMCU_row+0x80>
	} else {
		if (coef->iMCU_row_num < (cinfo->total_iMCU_rows-1))
    3aa4:	e0bffe17 	ldw	r2,-8(fp)
    3aa8:	10c00217 	ldw	r3,8(r2)
    3aac:	e0bfff17 	ldw	r2,-4(fp)
    3ab0:	10804217 	ldw	r2,264(r2)
    3ab4:	10bfffc4 	addi	r2,r2,-1
    3ab8:	1880062e 	bgeu	r3,r2,3ad4 <start_iMCU_row+0x6c>
			coef->MCU_rows_per_iMCU_row = cinfo->cur_comp_info[0]->v_samp_factor;
    3abc:	e0bfff17 	ldw	r2,-4(fp)
    3ac0:	10804417 	ldw	r2,272(r2)
    3ac4:	10c00317 	ldw	r3,12(r2)
    3ac8:	e0bffe17 	ldw	r2,-8(fp)
    3acc:	10c00515 	stw	r3,20(r2)
    3ad0:	00000506 	br	3ae8 <start_iMCU_row+0x80>
		else
			coef->MCU_rows_per_iMCU_row = cinfo->cur_comp_info[0]->last_row_height;
    3ad4:	e0bfff17 	ldw	r2,-4(fp)
    3ad8:	10804417 	ldw	r2,272(r2)
    3adc:	10c01317 	ldw	r3,76(r2)
    3ae0:	e0bffe17 	ldw	r2,-8(fp)
    3ae4:	10c00515 	stw	r3,20(r2)
	}

	coef->mcu_ctr = 0;
    3ae8:	e0bffe17 	ldw	r2,-8(fp)
    3aec:	10000315 	stw	zero,12(r2)
	coef->MCU_vert_offset = 0;
    3af0:	e0bffe17 	ldw	r2,-8(fp)
    3af4:	10000415 	stw	zero,16(r2)
}
    3af8:	e037883a 	mov	sp,fp
    3afc:	df000017 	ldw	fp,0(sp)
    3b00:	dec00104 	addi	sp,sp,4
    3b04:	f800283a 	ret

00003b08 <start_pass_coef>:
* Initialize for a processing pass.
*/

METHODDEF(void)
	start_pass_coef (j_compress_ptr cinfo, J_BUF_MODE pass_mode)
{
    3b08:	defffb04 	addi	sp,sp,-20
    3b0c:	dfc00415 	stw	ra,16(sp)
    3b10:	df000315 	stw	fp,12(sp)
    3b14:	df000304 	addi	fp,sp,12
    3b18:	e13ffe15 	stw	r4,-8(fp)
    3b1c:	e17fff15 	stw	r5,-4(fp)
	my_coef_ptr coef = (my_coef_ptr) cinfo->coef;
    3b20:	e0bffe17 	ldw	r2,-8(fp)
    3b24:	10805f17 	ldw	r2,380(r2)
    3b28:	e0bffd15 	stw	r2,-12(fp)

	coef->iMCU_row_num = 0;
    3b2c:	e0bffd17 	ldw	r2,-12(fp)
    3b30:	10000215 	stw	zero,8(r2)
	start_iMCU_row(cinfo);
    3b34:	e13ffe17 	ldw	r4,-8(fp)
    3b38:	0003a680 	call	3a68 <start_iMCU_row>

	switch (pass_mode) {
    3b3c:	e0bfff17 	ldw	r2,-4(fp)
    3b40:	10c000a0 	cmpeqi	r3,r2,2
    3b44:	1800251e 	bne	r3,zero,3bdc <start_pass_coef+0xd4>
    3b48:	10c000e0 	cmpeqi	r3,r2,3
    3b4c:	1800121e 	bne	r3,zero,3b98 <start_pass_coef+0x90>
    3b50:	1000331e 	bne	r2,zero,3c20 <start_pass_coef+0x118>
	case JBUF_PASS_THRU:
		if (coef->whole_image[0] != NULL)
    3b54:	e0bffd17 	ldw	r2,-12(fp)
    3b58:	10801017 	ldw	r2,64(r2)
    3b5c:	10000926 	beq	r2,zero,3b84 <start_pass_coef+0x7c>
			ERREXIT(cinfo, JERR_BAD_BUFFER_MODE);
    3b60:	e0bffe17 	ldw	r2,-8(fp)
    3b64:	10800017 	ldw	r2,0(r2)
    3b68:	00c000c4 	movi	r3,3
    3b6c:	10c00515 	stw	r3,20(r2)
    3b70:	e0bffe17 	ldw	r2,-8(fp)
    3b74:	10800017 	ldw	r2,0(r2)
    3b78:	10800017 	ldw	r2,0(r2)
    3b7c:	e13ffe17 	ldw	r4,-8(fp)
    3b80:	103ee83a 	callr	r2
		coef->pub.compress_data = compress_data;
    3b84:	e0bffd17 	ldw	r2,-12(fp)
    3b88:	00c00034 	movhi	r3,0
    3b8c:	18cf1704 	addi	r3,r3,15452
    3b90:	10c00115 	stw	r3,4(r2)
		break;
    3b94:	00002c06 	br	3c48 <start_pass_coef+0x140>
#ifdef FULL_COEF_BUFFER_SUPPORTED
	case JBUF_SAVE_AND_PASS:
		if (coef->whole_image[0] == NULL)
    3b98:	e0bffd17 	ldw	r2,-12(fp)
    3b9c:	10801017 	ldw	r2,64(r2)
    3ba0:	1000091e 	bne	r2,zero,3bc8 <start_pass_coef+0xc0>
			ERREXIT(cinfo, JERR_BAD_BUFFER_MODE);
    3ba4:	e0bffe17 	ldw	r2,-8(fp)
    3ba8:	10800017 	ldw	r2,0(r2)
    3bac:	00c000c4 	movi	r3,3
    3bb0:	10c00515 	stw	r3,20(r2)
    3bb4:	e0bffe17 	ldw	r2,-8(fp)
    3bb8:	10800017 	ldw	r2,0(r2)
    3bbc:	10800017 	ldw	r2,0(r2)
    3bc0:	e13ffe17 	ldw	r4,-8(fp)
    3bc4:	103ee83a 	callr	r2
		coef->pub.compress_data = compress_first_pass;
    3bc8:	e0bffd17 	ldw	r2,-12(fp)
    3bcc:	00c00034 	movhi	r3,0
    3bd0:	18d02404 	addi	r3,r3,16528
    3bd4:	10c00115 	stw	r3,4(r2)
		break;
    3bd8:	00001b06 	br	3c48 <start_pass_coef+0x140>
	case JBUF_CRANK_DEST:
		if (coef->whole_image[0] == NULL)
    3bdc:	e0bffd17 	ldw	r2,-12(fp)
    3be0:	10801017 	ldw	r2,64(r2)
    3be4:	1000091e 	bne	r2,zero,3c0c <start_pass_coef+0x104>
			ERREXIT(cinfo, JERR_BAD_BUFFER_MODE);
    3be8:	e0bffe17 	ldw	r2,-8(fp)
    3bec:	10800017 	ldw	r2,0(r2)
    3bf0:	00c000c4 	movi	r3,3
    3bf4:	10c00515 	stw	r3,20(r2)
    3bf8:	e0bffe17 	ldw	r2,-8(fp)
    3bfc:	10800017 	ldw	r2,0(r2)
    3c00:	10800017 	ldw	r2,0(r2)
    3c04:	e13ffe17 	ldw	r4,-8(fp)
    3c08:	103ee83a 	callr	r2
		coef->pub.compress_data = compress_output;
    3c0c:	e0bffd17 	ldw	r2,-12(fp)
    3c10:	00c00034 	movhi	r3,0
    3c14:	18d12c04 	addi	r3,r3,17584
    3c18:	10c00115 	stw	r3,4(r2)
		break;
    3c1c:	00000a06 	br	3c48 <start_pass_coef+0x140>
#endif
	default:
		ERREXIT(cinfo, JERR_BAD_BUFFER_MODE);
    3c20:	e0bffe17 	ldw	r2,-8(fp)
    3c24:	10800017 	ldw	r2,0(r2)
    3c28:	00c000c4 	movi	r3,3
    3c2c:	10c00515 	stw	r3,20(r2)
    3c30:	e0bffe17 	ldw	r2,-8(fp)
    3c34:	10800017 	ldw	r2,0(r2)
    3c38:	10800017 	ldw	r2,0(r2)
    3c3c:	e13ffe17 	ldw	r4,-8(fp)
    3c40:	103ee83a 	callr	r2
		break;
    3c44:	0001883a 	nop
	}
}
    3c48:	e037883a 	mov	sp,fp
    3c4c:	dfc00117 	ldw	ra,4(sp)
    3c50:	df000017 	ldw	fp,0(sp)
    3c54:	dec00204 	addi	sp,sp,8
    3c58:	f800283a 	ret

00003c5c <compress_data>:
* which we index according to the component's SOF position.
*/

METHODDEF(boolean)
	compress_data (j_compress_ptr cinfo, JSAMPIMAGE input_buf)
{
    3c5c:	deffeb04 	addi	sp,sp,-84
    3c60:	dfc01415 	stw	ra,80(sp)
    3c64:	df001315 	stw	fp,76(sp)
    3c68:	df001304 	addi	fp,sp,76
    3c6c:	e13ffe15 	stw	r4,-8(fp)
    3c70:	e17fff15 	stw	r5,-4(fp)
	my_coef_ptr coef = (my_coef_ptr) cinfo->coef;
    3c74:	e0bffe17 	ldw	r2,-8(fp)
    3c78:	10805f17 	ldw	r2,380(r2)
    3c7c:	e0bff715 	stw	r2,-36(fp)
	JDIMENSION MCU_col_num;	/* index of current MCU within row */
	JDIMENSION last_MCU_col = cinfo->MCUs_per_row - 1;
    3c80:	e0bffe17 	ldw	r2,-8(fp)
    3c84:	10804817 	ldw	r2,288(r2)
    3c88:	10bfffc4 	addi	r2,r2,-1
    3c8c:	e0bff815 	stw	r2,-32(fp)
	JDIMENSION last_iMCU_row = cinfo->total_iMCU_rows - 1;
    3c90:	e0bffe17 	ldw	r2,-8(fp)
    3c94:	10804217 	ldw	r2,264(r2)
    3c98:	10bfffc4 	addi	r2,r2,-1
    3c9c:	e0bff915 	stw	r2,-28(fp)
	JDIMENSION ypos, xpos;
	jpeg_component_info *compptr;
	forward_DCT_ptr forward_DCT;

	/* Loop to write as much as one whole iMCU row */
	for (yoffset = coef->MCU_vert_offset; yoffset < coef->MCU_rows_per_iMCU_row; yoffset++) {
    3ca0:	e0bff717 	ldw	r2,-36(fp)
    3ca4:	10800417 	ldw	r2,16(r2)
    3ca8:	e0bff515 	stw	r2,-44(fp)
    3cac:	0000e706 	br	404c <compress_data+0x3f0>
		for (MCU_col_num = coef->mcu_ctr; MCU_col_num <= last_MCU_col; MCU_col_num++) {
    3cb0:	e0bff717 	ldw	r2,-36(fp)
    3cb4:	10800317 	ldw	r2,12(r2)
    3cb8:	e0bff015 	stw	r2,-64(fp)
    3cbc:	0000db06 	br	402c <compress_data+0x3d0>
			* specially.  The data in them does not matter for image reconstruction,
			* so we fill them with values that will encode to the smallest amount of
			* data, viz: all zeroes in the AC entries, DC entries equal to previous
			* block's DC value.  (Thanks to Thomas Kinsman for this idea.)
			*/
			blkn = 0;
    3cc0:	e03ff115 	stw	zero,-60(fp)
			for (ci = 0; ci < cinfo->comps_in_scan; ci++) {
    3cc4:	e03ff315 	stw	zero,-52(fp)
    3cc8:	0000bf06 	br	3fc8 <compress_data+0x36c>
				compptr = cinfo->cur_comp_info[ci];
    3ccc:	e0fffe17 	ldw	r3,-8(fp)
    3cd0:	e0bff317 	ldw	r2,-52(fp)
    3cd4:	10801104 	addi	r2,r2,68
    3cd8:	1085883a 	add	r2,r2,r2
    3cdc:	1085883a 	add	r2,r2,r2
    3ce0:	1885883a 	add	r2,r3,r2
    3ce4:	10800017 	ldw	r2,0(r2)
    3ce8:	e0bffa15 	stw	r2,-24(fp)
				forward_DCT = cinfo->fdct->forward_DCT[compptr->component_index];
    3cec:	e0bffe17 	ldw	r2,-8(fp)
    3cf0:	10c06317 	ldw	r3,396(r2)
    3cf4:	e0bffa17 	ldw	r2,-24(fp)
    3cf8:	10800117 	ldw	r2,4(r2)
    3cfc:	10800044 	addi	r2,r2,1
    3d00:	1085883a 	add	r2,r2,r2
    3d04:	1085883a 	add	r2,r2,r2
    3d08:	1885883a 	add	r2,r3,r2
    3d0c:	10800017 	ldw	r2,0(r2)
    3d10:	e0bffb15 	stw	r2,-20(fp)
				blockcnt = (MCU_col_num < last_MCU_col) ? compptr->MCU_width : compptr->last_col_width;
    3d14:	e0fff017 	ldw	r3,-64(fp)
    3d18:	e0bff817 	ldw	r2,-32(fp)
    3d1c:	1880032e 	bgeu	r3,r2,3d2c <compress_data+0xd0>
    3d20:	e0bffa17 	ldw	r2,-24(fp)
    3d24:	10800e17 	ldw	r2,56(r2)
    3d28:	00000206 	br	3d34 <compress_data+0xd8>
    3d2c:	e0bffa17 	ldw	r2,-24(fp)
    3d30:	10801217 	ldw	r2,72(r2)
    3d34:	e0bffc15 	stw	r2,-16(fp)
				xpos = MCU_col_num * compptr->MCU_sample_width;
    3d38:	e0bffa17 	ldw	r2,-24(fp)
    3d3c:	10801117 	ldw	r2,68(r2)
    3d40:	1009883a 	mov	r4,r2
    3d44:	e17ff017 	ldw	r5,-64(fp)
    3d48:	002c1fc0 	call	2c1fc <__mulsi3>
    3d4c:	e0bffd15 	stw	r2,-12(fp)
				ypos = yoffset * compptr->DCT_v_scaled_size;
    3d50:	e0bffa17 	ldw	r2,-24(fp)
    3d54:	10800a17 	ldw	r2,40(r2)
    3d58:	1009883a 	mov	r4,r2
    3d5c:	e17ff517 	ldw	r5,-44(fp)
    3d60:	002c1fc0 	call	2c1fc <__mulsi3>
    3d64:	e0bff615 	stw	r2,-40(fp)
				/* ypos == (yoffset+yindex) * DCTSIZE */
				for (yindex = 0; yindex < compptr->MCU_height; yindex++) {
    3d68:	e03ff415 	stw	zero,-48(fp)
    3d6c:	00008f06 	br	3fac <compress_data+0x350>
					if (coef->iMCU_row_num < last_iMCU_row || yoffset+yindex < compptr->last_row_height) {
    3d70:	e0bff717 	ldw	r2,-36(fp)
    3d74:	10c00217 	ldw	r3,8(r2)
    3d78:	e0bff917 	ldw	r2,-28(fp)
    3d7c:	18800636 	bltu	r3,r2,3d98 <compress_data+0x13c>
    3d80:	e0fff517 	ldw	r3,-44(fp)
    3d84:	e0bff417 	ldw	r2,-48(fp)
    3d88:	1887883a 	add	r3,r3,r2
    3d8c:	e0bffa17 	ldw	r2,-24(fp)
    3d90:	10801317 	ldw	r2,76(r2)
    3d94:	18804f0e 	bge	r3,r2,3ed4 <compress_data+0x278>
						(*forward_DCT) (cinfo, compptr,
							input_buf[compptr->component_index],
    3d98:	e0bffa17 	ldw	r2,-24(fp)
    3d9c:	10800117 	ldw	r2,4(r2)
    3da0:	1085883a 	add	r2,r2,r2
    3da4:	1085883a 	add	r2,r2,r2
    3da8:	e0ffff17 	ldw	r3,-4(fp)
    3dac:	1885883a 	add	r2,r3,r2
				xpos = MCU_col_num * compptr->MCU_sample_width;
				ypos = yoffset * compptr->DCT_v_scaled_size;
				/* ypos == (yoffset+yindex) * DCTSIZE */
				for (yindex = 0; yindex < compptr->MCU_height; yindex++) {
					if (coef->iMCU_row_num < last_iMCU_row || yoffset+yindex < compptr->last_row_height) {
						(*forward_DCT) (cinfo, compptr,
    3db0:	10c00017 	ldw	r3,0(r2)
							input_buf[compptr->component_index],
							coef->MCU_buffer[blkn],
    3db4:	e13ff717 	ldw	r4,-36(fp)
				xpos = MCU_col_num * compptr->MCU_sample_width;
				ypos = yoffset * compptr->DCT_v_scaled_size;
				/* ypos == (yoffset+yindex) * DCTSIZE */
				for (yindex = 0; yindex < compptr->MCU_height; yindex++) {
					if (coef->iMCU_row_num < last_iMCU_row || yoffset+yindex < compptr->last_row_height) {
						(*forward_DCT) (cinfo, compptr,
    3db8:	e0bff117 	ldw	r2,-60(fp)
    3dbc:	10800184 	addi	r2,r2,6
    3dc0:	1085883a 	add	r2,r2,r2
    3dc4:	1085883a 	add	r2,r2,r2
    3dc8:	2085883a 	add	r2,r4,r2
    3dcc:	10800017 	ldw	r2,0(r2)
    3dd0:	e13ffc17 	ldw	r4,-16(fp)
    3dd4:	e17ff617 	ldw	r5,-40(fp)
    3dd8:	d9400015 	stw	r5,0(sp)
    3ddc:	e17ffd17 	ldw	r5,-12(fp)
    3de0:	d9400115 	stw	r5,4(sp)
    3de4:	d9000215 	stw	r4,8(sp)
    3de8:	e23ffb17 	ldw	r8,-20(fp)
    3dec:	e13ffe17 	ldw	r4,-8(fp)
    3df0:	e17ffa17 	ldw	r5,-24(fp)
    3df4:	180d883a 	mov	r6,r3
    3df8:	100f883a 	mov	r7,r2
    3dfc:	403ee83a 	callr	r8
							input_buf[compptr->component_index],
							coef->MCU_buffer[blkn],
							ypos, xpos, (JDIMENSION) blockcnt);
						if (blockcnt < compptr->MCU_width) {
    3e00:	e0bffa17 	ldw	r2,-24(fp)
    3e04:	10800e17 	ldw	r2,56(r2)
    3e08:	e0fffc17 	ldw	r3,-16(fp)
    3e0c:	18805a0e 	bge	r3,r2,3f78 <compress_data+0x31c>
							/* Create some dummy blocks at the right edge of the image. */
							jzero_far((void FAR *) coef->MCU_buffer[blkn + blockcnt],
    3e10:	e0fff117 	ldw	r3,-60(fp)
    3e14:	e0bffc17 	ldw	r2,-16(fp)
    3e18:	1885883a 	add	r2,r3,r2
    3e1c:	e0fff717 	ldw	r3,-36(fp)
    3e20:	10800184 	addi	r2,r2,6
    3e24:	1085883a 	add	r2,r2,r2
    3e28:	1085883a 	add	r2,r2,r2
    3e2c:	1885883a 	add	r2,r3,r2
    3e30:	10c00017 	ldw	r3,0(r2)
								(compptr->MCU_width - blockcnt) * SIZEOF(JBLOCK));
